
demoChibi.axf:     file format elf32-littlearm


Disassembly of section .entry:

00000000 <_vector_rom>:
   0:	20010000 	andcs	r0, r1, r0
   4:	00000411 	andeq	r0, r0, r1, lsl r4
   8:	000004d9 	ldrdeq	r0, [r0], -r9
   c:	000004dd 	ldrdeq	r0, [r0], -sp
  10:	000004dd 	ldrdeq	r0, [r0], -sp
  14:	000004dd 	ldrdeq	r0, [r0], -sp
  18:	000004dd 	ldrdeq	r0, [r0], -sp
	...
  2c:	00002501 	andeq	r2, r0, r1, lsl #10
  30:	000004e1 	andeq	r0, r0, r1, ror #9
  34:	00000000 	andeq	r0, r0, r0
  38:	000004e1 	andeq	r0, r0, r1, ror #9
  3c:	000024e1 	andeq	r2, r0, r1, ror #9
  40:	000004e1 	andeq	r0, r0, r1, ror #9
  44:	000004e1 	andeq	r0, r0, r1, ror #9
  48:	000004e1 	andeq	r0, r0, r1, ror #9
  4c:	000004e1 	andeq	r0, r0, r1, ror #9
  50:	000004e1 	andeq	r0, r0, r1, ror #9
  54:	000004e1 	andeq	r0, r0, r1, ror #9
  58:	000004e1 	andeq	r0, r0, r1, ror #9
  5c:	000004e1 	andeq	r0, r0, r1, ror #9
  60:	000004e1 	andeq	r0, r0, r1, ror #9
  64:	000004e1 	andeq	r0, r0, r1, ror #9
  68:	000004e1 	andeq	r0, r0, r1, ror #9
  6c:	000004e1 	andeq	r0, r0, r1, ror #9
  70:	000004e1 	andeq	r0, r0, r1, ror #9
  74:	000004e1 	andeq	r0, r0, r1, ror #9
  78:	000004e1 	andeq	r0, r0, r1, ror #9
  7c:	000004e1 	andeq	r0, r0, r1, ror #9
  80:	000004e1 	andeq	r0, r0, r1, ror #9
  84:	000004e1 	andeq	r0, r0, r1, ror #9
  88:	000004e1 	andeq	r0, r0, r1, ror #9
  8c:	000004e1 	andeq	r0, r0, r1, ror #9
  90:	000004e1 	andeq	r0, r0, r1, ror #9
  94:	000004e1 	andeq	r0, r0, r1, ror #9
  98:	000004e1 	andeq	r0, r0, r1, ror #9
  9c:	000004e1 	andeq	r0, r0, r1, ror #9
  a0:	000004e1 	andeq	r0, r0, r1, ror #9
  a4:	000004e1 	andeq	r0, r0, r1, ror #9
  a8:	000004e1 	andeq	r0, r0, r1, ror #9
  ac:	000004e1 	andeq	r0, r0, r1, ror #9
  b0:	000004e1 	andeq	r0, r0, r1, ror #9
  b4:	000004e1 	andeq	r0, r0, r1, ror #9
  b8:	000004e1 	andeq	r0, r0, r1, ror #9
  bc:	000004e1 	andeq	r0, r0, r1, ror #9
  c0:	000004e1 	andeq	r0, r0, r1, ror #9
  c4:	000004e1 	andeq	r0, r0, r1, ror #9
  c8:	000004e1 	andeq	r0, r0, r1, ror #9
  cc:	000004e1 	andeq	r0, r0, r1, ror #9
  d0:	000004e1 	andeq	r0, r0, r1, ror #9
  d4:	000004e1 	andeq	r0, r0, r1, ror #9
  d8:	000004e1 	andeq	r0, r0, r1, ror #9
  dc:	000004e1 	andeq	r0, r0, r1, ror #9
  e0:	000004e1 	andeq	r0, r0, r1, ror #9
  e4:	000004e1 	andeq	r0, r0, r1, ror #9
  e8:	000004e1 	andeq	r0, r0, r1, ror #9
  ec:	000004e1 	andeq	r0, r0, r1, ror #9
  f0:	000004e1 	andeq	r0, r0, r1, ror #9
  f4:	000004e1 	andeq	r0, r0, r1, ror #9
  f8:	000004e1 	andeq	r0, r0, r1, ror #9
  fc:	000004e1 	andeq	r0, r0, r1, ror #9
 100:	000004e1 	andeq	r0, r0, r1, ror #9
 104:	000004e1 	andeq	r0, r0, r1, ror #9
 108:	000004e1 	andeq	r0, r0, r1, ror #9
 10c:	000004e1 	andeq	r0, r0, r1, ror #9
 110:	000004e1 	andeq	r0, r0, r1, ror #9
 114:	000004e1 	andeq	r0, r0, r1, ror #9
 118:	000004e1 	andeq	r0, r0, r1, ror #9
 11c:	000004e1 	andeq	r0, r0, r1, ror #9
 120:	000004e1 	andeq	r0, r0, r1, ror #9
 124:	000004e1 	andeq	r0, r0, r1, ror #9
 128:	000004e1 	andeq	r0, r0, r1, ror #9
 12c:	000004e1 	andeq	r0, r0, r1, ror #9
 130:	000004e1 	andeq	r0, r0, r1, ror #9
 134:	000004e1 	andeq	r0, r0, r1, ror #9
 138:	000004e1 	andeq	r0, r0, r1, ror #9
 13c:	000004e1 	andeq	r0, r0, r1, ror #9
 140:	000004e1 	andeq	r0, r0, r1, ror #9
 144:	000004e1 	andeq	r0, r0, r1, ror #9
 148:	000004e1 	andeq	r0, r0, r1, ror #9
 14c:	000004e1 	andeq	r0, r0, r1, ror #9
 150:	000004e1 	andeq	r0, r0, r1, ror #9
 154:	000004e1 	andeq	r0, r0, r1, ror #9
 158:	000004e1 	andeq	r0, r0, r1, ror #9
 15c:	000004e1 	andeq	r0, r0, r1, ror #9
 160:	000004e1 	andeq	r0, r0, r1, ror #9
 164:	000004e1 	andeq	r0, r0, r1, ror #9
 168:	000004e1 	andeq	r0, r0, r1, ror #9
 16c:	000004e1 	andeq	r0, r0, r1, ror #9
 170:	000004e1 	andeq	r0, r0, r1, ror #9
 174:	000004e1 	andeq	r0, r0, r1, ror #9
 178:	000004e1 	andeq	r0, r0, r1, ror #9
 17c:	000004e1 	andeq	r0, r0, r1, ror #9
 180:	000004e1 	andeq	r0, r0, r1, ror #9
 184:	000004e1 	andeq	r0, r0, r1, ror #9
 188:	000004e1 	andeq	r0, r0, r1, ror #9
 18c:	000004e1 	andeq	r0, r0, r1, ror #9
 190:	000004e1 	andeq	r0, r0, r1, ror #9
 194:	000004e1 	andeq	r0, r0, r1, ror #9
 198:	000004e1 	andeq	r0, r0, r1, ror #9
 19c:	000004e1 	andeq	r0, r0, r1, ror #9
 1a0:	000004e1 	andeq	r0, r0, r1, ror #9
 1a4:	000004e1 	andeq	r0, r0, r1, ror #9
 1a8:	000004e1 	andeq	r0, r0, r1, ror #9
	...
 400:	01234567 	teqeq	r3, r7, ror #10
 404:	89abcdef 	stmibhi	fp!, {r0, r1, r2, r3, r5, r6, r7, r8, sl, fp, lr, pc}
 408:	ffffffff 			; <UNDEFINED> instruction: 0xffffffff
 40c:	fffffffe 			; <UNDEFINED> instruction: 0xfffffffe

00000410 <_reset_handler>:
    .thumb_func

_default_reset_handler:

unlock_watchdog:
    ldr r6, =0x4005200e
 410:	4e34      	ldr	r6, [pc, #208]	; (4e4 <PendSVVector+0x4>)
    ldr r0, =0xc520
 412:	4835      	ldr	r0, [pc, #212]	; (4e8 <PendSVVector+0x8>)
    strh r0, [r6]
 414:	8030      	strh	r0, [r6, #0]
    ldr r0, =0xd928
 416:	4835      	ldr	r0, [pc, #212]	; (4ec <PendSVVector+0xc>)
    strh r0, [r6]
 418:	8030      	strh	r0, [r6, #0]

0000041a <disable_watchdog>:

disable_watchdog:
    ldr r6, =0x40052000
 41a:	4e35      	ldr	r6, [pc, #212]	; (4f0 <PendSVVector+0x10>)
    ldr r0, =0x01d2
 41c:	4835      	ldr	r0, [pc, #212]	; (4f4 <PendSVVector+0x14>)
    strh r0, [r6]
 41e:	8030      	strh	r0, [r6, #0]

00000420 <first_break>:
     * address 0x00000000 (which is the first element in the vector_table) by
     * the hardware. The next three lines are required in case this image
     * is not located at 0x0 (i.e. it is being launched from a bootloader).
     */

    ldr r1, =_vector_table
 420:	4935      	ldr	r1, [pc, #212]	; (4f8 <PendSVVector+0x18>)
    ldr r2, [r1]
 422:	680a      	ldr	r2, [r1, #0]
    mov	sp,r2
 424:	4695      	mov	sp, r2

00000426 <chibi_setup>:

chibi_setup:
    /*
     * ChibiOS requires a process stack to be initialized.
     */
    ldr r1, =_process_stack_start
 426:	4935      	ldr	r1, [pc, #212]	; (4fc <PendSVVector+0x1c>)
    msr PSP, r1
 428:	f381 8809 	msr	PSP, r1

    /* TODO: FPU register initialization per crt0.c */
    /*
     * Set up system to run in privileged mode using the PSP stack
     */
    ldr r1, =0x00000002
 42c:	4934      	ldr	r1, [pc, #208]	; (500 <PendSVVector+0x20>)
    msr CONTROL, r1
 42e:	f381 8814 	msr	CONTROL, r1
    isb
 432:	f3bf 8f6f 	isb	sy

00000436 <c_data_init>:
     * Relocate the .text section from FLASH to SRAM only if the load
     * address and the start address are not the same. This code supports
     * running an entire image out of SRAM.
     */

    ldr r0, =_text_start
 436:	4833      	ldr	r0, [pc, #204]	; (504 <PendSVVector+0x24>)
    ldr r1, =_text_end
 438:	4933      	ldr	r1, [pc, #204]	; (508 <PendSVVector+0x28>)
    ldr r2, =_text_load
 43a:	4a34      	ldr	r2, [pc, #208]	; (50c <PendSVVector+0x2c>)

    cmp r0, r2
 43c:	4290      	cmp	r0, r2
    beq end_text_loop
 43e:	f000 8008 	beq.w	452 <end_text_loop>

00000442 <text_loop>:
text_loop:
    cmp r0, r1
 442:	4288      	cmp	r0, r1
    ittt    lt
 444:	bfbe      	ittt	lt
    ldrlt   r3, [r2], #4
 446:	f852 3b04 	ldrlt.w	r3, [r2], #4
    strlt   r3, [r0], #4
 44a:	f840 3b04 	strlt.w	r3, [r0], #4
    blt     text_loop
 44e:	f7ff bff8 	blt.w	442 <text_loop>

00000452 <end_text_loop>:

    /*
     * Relocate the .ramcode section from FLASH to SRAM.
     */

    ldr r0, =_ramcode_start
 452:	482f      	ldr	r0, [pc, #188]	; (510 <PendSVVector+0x30>)
    ldr r1, =_ramcode_end
 454:	492f      	ldr	r1, [pc, #188]	; (514 <PendSVVector+0x34>)
    ldr r2, =_ramcode_load
 456:	4a30      	ldr	r2, [pc, #192]	; (518 <PendSVVector+0x38>)

00000458 <ramcode_loop>:

ramcode_loop:
    cmp r0, r1
 458:	4288      	cmp	r0, r1
    ittt    lt
 45a:	bfbe      	ittt	lt
    ldrlt   r3, [r2], #4
 45c:	f852 3b04 	ldrlt.w	r3, [r2], #4
    strlt   r3, [r0], #4
 460:	f840 3b04 	strlt.w	r3, [r0], #4
    blt     ramcode_loop
 464:	f7ff bff8 	blt.w	458 <ramcode_loop>

    /*
     * Relocate vector table to SRAM.
     */

     ldr r0, =_vector_ram_start
 468:	482c      	ldr	r0, [pc, #176]	; (51c <PendSVVector+0x3c>)
     ldr r1, =_vector_ram_end
 46a:	492d      	ldr	r1, [pc, #180]	; (520 <PendSVVector+0x40>)
     ldr r2, =_vector_rom
 46c:	4a2d      	ldr	r2, [pc, #180]	; (524 <PendSVVector+0x44>)

0000046e <vector_loop>:
vector_loop:
    cmp r0, r1
 46e:	4288      	cmp	r0, r1
    ittt    lt
 470:	bfbe      	ittt	lt
    ldrlt   r3, [r2], #4
 472:	f852 3b04 	ldrlt.w	r3, [r2], #4
    strlt   r3, [r0], #4
 476:	f840 3b04 	strlt.w	r3, [r0], #4
    blt     vector_loop
 47a:	f7ff bff8 	blt.w	46e <vector_loop>

    /*
     * Point to the SRAM vector table.
     */

    ldr r1,=0xe000ed08
 47e:	492a      	ldr	r1, [pc, #168]	; (528 <PendSVVector+0x48>)
    ldr r0,=_vector_ram_start
 480:	4826      	ldr	r0, [pc, #152]	; (51c <PendSVVector+0x3c>)
    str r0,[r1]
 482:	6008      	str	r0, [r1, #0]

00000484 <c_runtime_setup>:
     * Note: _data_start contains the SRAM (destination) address and
     *       _text_end contains the (source) address of the .data section
     *       in FLASH.
     */

    ldr r0, =_data_start
 484:	4829      	ldr	r0, [pc, #164]	; (52c <PendSVVector+0x4c>)
    ldr r1, =_data_end
 486:	492a      	ldr	r1, [pc, #168]	; (530 <PendSVVector+0x50>)
    ldr r2, =_data_load
 488:	4a2a      	ldr	r2, [pc, #168]	; (534 <PendSVVector+0x54>)

0000048a <data_loop>:

data_loop:
    cmp r0, r1
 48a:	4288      	cmp	r0, r1
    ittt    lt
 48c:	bfbe      	ittt	lt
    ldrlt   r3, [r2], #4
 48e:	f852 3b04 	ldrlt.w	r3, [r2], #4
    strlt   r3, [r0], #4
 492:	f840 3b04 	strlt.w	r3, [r0], #4
    blt     data_loop
 496:	f7ff bff8 	blt.w	48a <data_loop>

    /*
     * Zero out the .bss section in SRAM.
     */

    ldr r0, =_bss_start
 49a:	4827      	ldr	r0, [pc, #156]	; (538 <PendSVVector+0x58>)
    ldr r1, =_bss_end
 49c:	4927      	ldr	r1, [pc, #156]	; (53c <PendSVVector+0x5c>)
    ldr r2, =0x00000000
 49e:	4a28      	ldr	r2, [pc, #160]	; (540 <PendSVVector+0x60>)

000004a0 <bss_loop>:

bss_loop:
    cmp r0, r1
 4a0:	4288      	cmp	r0, r1
    itt     lt
 4a2:	bfbc      	itt	lt
    strlt   r2, [r0], #4
 4a4:	f840 2b04 	strlt.w	r2, [r0], #4
    blt     bss_loop
 4a8:	f7ff bffa 	blt.w	4a0 <bss_loop>

    /*
     * Zero out heap.
     */

    ldr r0, =_heap_start
 4ac:	4825      	ldr	r0, [pc, #148]	; (544 <PendSVVector+0x64>)
    ldr r1, =_heap_end
 4ae:	4926      	ldr	r1, [pc, #152]	; (548 <PendSVVector+0x68>)

000004b0 <heap_loop>:

heap_loop:
    cmp r0, r1
 4b0:	4288      	cmp	r0, r1
    itt     lt
 4b2:	bfbc      	itt	lt
    strlt   r2, [r0], #4
 4b4:	f840 2b04 	strlt.w	r2, [r0], #4
    blt     heap_loop
 4b8:	f7ff bffa 	blt.w	4b0 <heap_loop>
    ldr r0, =_stack_start
    ldr r1, =_stack_end
    ldr r2, =0xefefefef
*/

    ldr r0, =_stack_end
 4bc:	4823      	ldr	r0, [pc, #140]	; (54c <PendSVVector+0x6c>)
    ldr r1, =_stack_start
 4be:	4924      	ldr	r1, [pc, #144]	; (550 <PendSVVector+0x70>)
    ldr r2, =0xefefefef
 4c0:	4a24      	ldr	r2, [pc, #144]	; (554 <PendSVVector+0x74>)

000004c2 <stack_loop>:

stack_loop:
    cmp r0, r1
 4c2:	4288      	cmp	r0, r1
    itt     lt
 4c4:	bfbc      	itt	lt
    strlt   r2, [r0], #4
 4c6:	f840 2b04 	strlt.w	r2, [r0], #4
    blt     stack_loop
 4ca:	f7ff bffa 	blt.w	4c2 <stack_loop>

000004ce <call_user_asm_code>:

call_user_asm_code:
    bl main
 4ce:	f000 f89f 	bl	610 <main>

000004d2 <end_loop>:
    /*
     * Epilogue processing would go here.
     */

end_loop:
    b end_loop
 4d2:	f7ff bffe 	b.w	4d2 <end_loop>
 4d6:	bf00      	nop

000004d8 <_nmi_handler>:

    .align 2
    .thumb_func

_default_nmi_handler:
    b _default_nmi_handler
 4d8:	f7ff bffe 	b.w	4d8 <_nmi_handler>

000004dc <_bus_fault_handler>:

    .align 2
    .thumb_func

_default_fault_handler:
    b _default_fault_handler
 4dc:	f7ff bffe 	b.w	4dc <_bus_fault_handler>

000004e0 <PendSVVector>:

    .align 2
    .thumb_func

_default_irq_handler:
    b _default_irq_handler
 4e0:	f7ff bffe 	b.w	4e0 <PendSVVector>
    .thumb_func

_default_reset_handler:

unlock_watchdog:
    ldr r6, =0x4005200e
 4e4:	4005200e 	andmi	r2, r5, lr
    ldr r0, =0xc520
 4e8:	0000c520 	andeq	ip, r0, r0, lsr #10
    strh r0, [r6]
    ldr r0, =0xd928
 4ec:	0000d928 	andeq	sp, r0, r8, lsr #18
    strh r0, [r6]

disable_watchdog:
    ldr r6, =0x40052000
 4f0:	40052000 	andmi	r2, r5, r0
    ldr r0, =0x01d2
 4f4:	000001d2 	ldrdeq	r0, [r0], -r2
     * address 0x00000000 (which is the first element in the vector_table) by
     * the hardware. The next three lines are required in case this image
     * is not located at 0x0 (i.e. it is being launched from a bootloader).
     */

    ldr r1, =_vector_table
 4f8:	00000000 	andeq	r0, r0, r0

chibi_setup:
    /*
     * ChibiOS requires a process stack to be initialized.
     */
    ldr r1, =_process_stack_start
 4fc:	2000f800 	andcs	pc, r0, r0, lsl #16

    /* TODO: FPU register initialization per crt0.c */
    /*
     * Set up system to run in privileged mode using the PSP stack
     */
    ldr r1, =0x00000002
 500:	00000002 	andeq	r0, r0, r2
     * Relocate the .text section from FLASH to SRAM only if the load
     * address and the start address are not the same. This code supports
     * running an entire image out of SRAM.
     */

    ldr r0, =_text_start
 504:	00000560 	andeq	r0, r0, r0, ror #10
    ldr r1, =_text_end
 508:	00002cf0 	strdeq	r2, [r0], -r0
    ldr r2, =_text_load
 50c:	00000560 	andeq	r0, r0, r0, ror #10

    /*
     * Relocate the .ramcode section from FLASH to SRAM.
     */

    ldr r0, =_ramcode_start
 510:	1fff0000 	svcne	0x00ff0000
    ldr r1, =_ramcode_end
 514:	1fff0000 	svcne	0x00ff0000
    ldr r2, =_ramcode_load
 518:	00002cf0 	strdeq	r2, [r0], -r0

    /*
     * Relocate vector table to SRAM.
     */

     ldr r0, =_vector_ram_start
 51c:	20000000 	andcs	r0, r0, r0
     ldr r1, =_vector_ram_end
 520:	20000400 	andcs	r0, r0, r0, lsl #8
     ldr r2, =_vector_rom
 524:	00000000 	andeq	r0, r0, r0

    /*
     * Point to the SRAM vector table.
     */

    ldr r1,=0xe000ed08
 528:	e000ed08 	and	lr, r0, r8, lsl #26
     * Note: _data_start contains the SRAM (destination) address and
     *       _text_end contains the (source) address of the .data section
     *       in FLASH.
     */

    ldr r0, =_data_start
 52c:	20000400 	andcs	r0, r0, r0, lsl #8
    ldr r1, =_data_end
 530:	20000430 	andcs	r0, r0, r0, lsr r4
    ldr r2, =_data_load
 534:	00002cf0 	strdeq	r2, [r0], -r0

    /*
     * Zero out the .bss section in SRAM.
     */

    ldr r0, =_bss_start
 538:	20000430 	andcs	r0, r0, r0, lsr r4
    ldr r1, =_bss_end
 53c:	20000750 	andcs	r0, r0, r0, asr r7
    ldr r2, =0x00000000
 540:	00000000 	andeq	r0, r0, r0

    /*
     * Zero out heap.
     */

    ldr r0, =_heap_start
 544:	20000750 	andcs	r0, r0, r0, asr r7
    ldr r1, =_heap_end
 548:	2000f000 	andcs	pc, r0, r0
    ldr r0, =_stack_start
    ldr r1, =_stack_end
    ldr r2, =0xefefefef
*/

    ldr r0, =_stack_end
 54c:	2000f800 	andcs	pc, r0, r0, lsl #16
    ldr r1, =_stack_start
 550:	20010000 	andcs	r0, r1, r0
    ldr r2, =0xefefefef
 554:	efefefef 	svc	0x00efefef

Disassembly of section .text:

00000560 <assert_>:
#define TSI_ORANGE_BIT    BIT_5

#define TSI_YELLOW_INDEX  8
#define TSI_YELLOW_BIT    BIT_8

void assert_(const char *file, const int line) { }
     560:	b480      	push	{r7}
     562:	b083      	sub	sp, #12
     564:	af00      	add	r7, sp, #0
     566:	6078      	str	r0, [r7, #4]
     568:	6039      	str	r1, [r7, #0]
     56a:	f107 070c 	add.w	r7, r7, #12
     56e:	46bd      	mov	sp, r7
     570:	bc80      	pop	{r7}
     572:	4770      	bx	lr

00000574 <Thread1>:

static WORKING_AREA(waThread1, 128);
static msg_t Thread1(void *arg) {
     574:	b580      	push	{r7, lr}
     576:	b082      	sub	sp, #8
     578:	af00      	add	r7, sp, #0
     57a:	6078      	str	r0, [r7, #4]
    while (TRUE) {
        chThdSleepMilliseconds(500);
     57c:	f44f 70fa 	mov.w	r0, #500	; 0x1f4
     580:	f001 fb6e 	bl	1c60 <chThdSleep>
        gpioToggle(N_LED_YELLOW_PORT, N_LED_YELLOW_PIN);
     584:	f44f 4010 	mov.w	r0, #36864	; 0x9000
     588:	f2c4 0004 	movt	r0, #16388	; 0x4004
     58c:	f04f 011c 	mov.w	r1, #28
     590:	f000 fa02 	bl	998 <gpioToggle>
    }
     594:	e7f2      	b.n	57c <Thread1+0x8>
     596:	bf00      	nop

00000598 <clocksInit>:

    return 0;
}

static void clocksInit(void)
{
     598:	b580      	push	{r7, lr}
     59a:	af00      	add	r7, sp, #0
     * System:  100 MHz
     * Bus:      50 MHz
     * Flexbus:  50 MHz
     * Flash:    25 MHz
     */
    clockSetDividers(DIVIDE_BY_1, DIVIDE_BY_2, DIVIDE_BY_4, DIVIDE_BY_4);
     59c:	f04f 0000 	mov.w	r0, #0
     5a0:	f04f 0101 	mov.w	r1, #1
     5a4:	f04f 0203 	mov.w	r2, #3
     5a8:	f04f 0303 	mov.w	r3, #3
     5ac:	f000 fc46 	bl	e3c <clockSetDividers>
    clockConfigMcgOut(MCG_PLL_EXTERNAL_100MHZ);
     5b0:	f04f 0000 	mov.w	r0, #0
     5b4:	f000 fd52 	bl	105c <clockConfigMcgOut>
}
     5b8:	bd80      	pop	{r7, pc}
     5ba:	bf00      	nop

000005bc <systickInit>:

static void systickInit(void)
{
     5bc:	b580      	push	{r7, lr}
     5be:	b082      	sub	sp, #8
     5c0:	af00      	add	r7, sp, #0
    uint32_t freq = clockGetFreq(CLOCK_CORE);
     5c2:	f04f 0002 	mov.w	r0, #2
     5c6:	f000 fce5 	bl	f94 <clockGetFreq>
     5ca:	6078      	str	r0, [r7, #4]

    NVIC_SYSTICK_RELOAD = freq / CH_FREQUENCY - 1;
     5cc:	f24e 0314 	movw	r3, #57364	; 0xe014
     5d0:	f2ce 0300 	movt	r3, #57344	; 0xe000
     5d4:	6879      	ldr	r1, [r7, #4]
     5d6:	f644 52d3 	movw	r2, #19923	; 0x4dd3
     5da:	f2c1 0262 	movt	r2, #4194	; 0x1062
     5de:	fba2 0201 	umull	r0, r2, r2, r1
     5e2:	ea4f 1292 	mov.w	r2, r2, lsr #6
     5e6:	f102 32ff 	add.w	r2, r2, #4294967295
     5ea:	601a      	str	r2, [r3, #0]
    NVIC_SYSTICK_VALUE = 0;
     5ec:	f24e 0318 	movw	r3, #57368	; 0xe018
     5f0:	f2ce 0300 	movt	r3, #57344	; 0xe000
     5f4:	f04f 0200 	mov.w	r2, #0
     5f8:	601a      	str	r2, [r3, #0]
    NVIC_SYSTICK_CONTROL = NVIC_SYSTICK_CONTROL_ENABLE
     5fa:	f24e 0310 	movw	r3, #57360	; 0xe010
     5fe:	f2ce 0300 	movt	r3, #57344	; 0xe000
     602:	f04f 0207 	mov.w	r2, #7
     606:	601a      	str	r2, [r3, #0]
                         | NVIC_SYSTICK_CONTROL_TICKINT
                         | NVIC_SYSTICK_CONTROL_CLKSOURCE;
}
     608:	f107 0708 	add.w	r7, r7, #8
     60c:	46bd      	mov	sp, r7
     60e:	bd80      	pop	{r7, pc}

00000610 <main>:

int main(void)
{
     610:	b580      	push	{r7, lr}
     612:	b082      	sub	sp, #8
     614:	af02      	add	r7, sp, #8
    clocksInit();
     616:	f7ff ffbf 	bl	598 <clocksInit>
    systickInit();
     61a:	f7ff ffcf 	bl	5bc <systickInit>
    chSysInit();
     61e:	f000 fe47 	bl	12b0 <chSysInit>

    gpioConfig(N_LED_ORANGE_PORT, N_LED_ORANGE_PIN, GPIO_OUTPUT | GPIO_LOW);
     622:	f44f 4010 	mov.w	r0, #36864	; 0x9000
     626:	f2c4 0004 	movt	r0, #16388	; 0x4004
     62a:	f04f 010b 	mov.w	r1, #11
     62e:	f04f 0222 	mov.w	r2, #34	; 0x22
     632:	f000 f883 	bl	73c <gpioConfig>
    gpioConfig(N_LED_YELLOW_PORT, N_LED_YELLOW_PIN, GPIO_OUTPUT | GPIO_LOW);
     636:	f44f 4010 	mov.w	r0, #36864	; 0x9000
     63a:	f2c4 0004 	movt	r0, #16388	; 0x4004
     63e:	f04f 011c 	mov.w	r1, #28
     642:	f04f 0222 	mov.w	r2, #34	; 0x22
     646:	f000 f879 	bl	73c <gpioConfig>

    chThdCreateStatic(waThread1, sizeof(waThread1), NORMALPRIO, Thread1, NULL);
     64a:	f04f 0300 	mov.w	r3, #0
     64e:	9300      	str	r3, [sp, #0]
     650:	f240 4030 	movw	r0, #1072	; 0x430
     654:	f2c2 0000 	movt	r0, #8192	; 0x2000
     658:	f44f 71dc 	mov.w	r1, #440	; 0x1b8
     65c:	f04f 0240 	mov.w	r2, #64	; 0x40
     660:	f240 5375 	movw	r3, #1397	; 0x575
     664:	f2c0 0300 	movt	r3, #0
     668:	f001 fa6a 	bl	1b40 <chThdCreateStatic>

    hwInterruptsEnable();
     66c:	b662      	cpsie	i

    while (TRUE) {
        chThdSleepMilliseconds(123);
     66e:	f04f 007b 	mov.w	r0, #123	; 0x7b
     672:	f001 faf5 	bl	1c60 <chThdSleep>
        gpioToggle(N_LED_ORANGE_PORT, N_LED_ORANGE_PIN);
     676:	f44f 4010 	mov.w	r0, #36864	; 0x9000
     67a:	f2c4 0004 	movt	r0, #16388	; 0x4004
     67e:	f04f 010b 	mov.w	r1, #11
     682:	f000 f989 	bl	998 <gpioToggle>
    }
     686:	e7f2      	b.n	66e <main+0x5e>

00000688 <gpioPortGet>:
*
* RETURNS: The corresponding GPIO_BASE_ADDR.
*
*******************************************************************************/
static volatile gpioPort_t *gpioPortGet(uint32_t port)
{
     688:	b580      	push	{r7, lr}
     68a:	b084      	sub	sp, #16
     68c:	af00      	add	r7, sp, #0
     68e:	6078      	str	r0, [r7, #4]
    uint32_t addr;

    switch (port) {
     690:	687b      	ldr	r3, [r7, #4]
     692:	f44f 4230 	mov.w	r2, #45056	; 0xb000
     696:	f2c4 0204 	movt	r2, #16388	; 0x4004
     69a:	4293      	cmp	r3, r2
     69c:	d02b      	beq.n	6f6 <gpioPortGet+0x6e>
     69e:	f44f 4230 	mov.w	r2, #45056	; 0xb000
     6a2:	f2c4 0204 	movt	r2, #16388	; 0x4004
     6a6:	4293      	cmp	r3, r2
     6a8:	d80c      	bhi.n	6c4 <gpioPortGet+0x3c>
     6aa:	f44f 4210 	mov.w	r2, #36864	; 0x9000
     6ae:	f2c4 0204 	movt	r2, #16388	; 0x4004
     6b2:	4293      	cmp	r3, r2
     6b4:	d013      	beq.n	6de <gpioPortGet+0x56>
     6b6:	f44f 4220 	mov.w	r2, #40960	; 0xa000
     6ba:	f2c4 0204 	movt	r2, #16388	; 0x4004
     6be:	4293      	cmp	r3, r2
     6c0:	d013      	beq.n	6ea <gpioPortGet+0x62>
     6c2:	e02a      	b.n	71a <gpioPortGet+0x92>
     6c4:	f44f 4240 	mov.w	r2, #49152	; 0xc000
     6c8:	f2c4 0204 	movt	r2, #16388	; 0x4004
     6cc:	4293      	cmp	r3, r2
     6ce:	d018      	beq.n	702 <gpioPortGet+0x7a>
     6d0:	f44f 4250 	mov.w	r2, #53248	; 0xd000
     6d4:	f2c4 0204 	movt	r2, #16388	; 0x4004
     6d8:	4293      	cmp	r3, r2
     6da:	d018      	beq.n	70e <gpioPortGet+0x86>
     6dc:	e01d      	b.n	71a <gpioPortGet+0x92>
    case PORTA: addr = GPIOA_BASE_ADDR; break;
     6de:	f44f 4370 	mov.w	r3, #61440	; 0xf000
     6e2:	f2c4 030f 	movt	r3, #16399	; 0x400f
     6e6:	60fb      	str	r3, [r7, #12]
     6e8:	e022      	b.n	730 <gpioPortGet+0xa8>
    case PORTB: addr = GPIOB_BASE_ADDR; break;
     6ea:	f24f 0340 	movw	r3, #61504	; 0xf040
     6ee:	f2c4 030f 	movt	r3, #16399	; 0x400f
     6f2:	60fb      	str	r3, [r7, #12]
     6f4:	e01c      	b.n	730 <gpioPortGet+0xa8>
    case PORTC: addr = GPIOC_BASE_ADDR; break;
     6f6:	f24f 0380 	movw	r3, #61568	; 0xf080
     6fa:	f2c4 030f 	movt	r3, #16399	; 0x400f
     6fe:	60fb      	str	r3, [r7, #12]
     700:	e016      	b.n	730 <gpioPortGet+0xa8>
    case PORTD: addr = GPIOD_BASE_ADDR; break;
     702:	f24f 03c0 	movw	r3, #61632	; 0xf0c0
     706:	f2c4 030f 	movt	r3, #16399	; 0x400f
     70a:	60fb      	str	r3, [r7, #12]
     70c:	e010      	b.n	730 <gpioPortGet+0xa8>
    case PORTE: addr = GPIOE_BASE_ADDR; break;
     70e:	f44f 4371 	mov.w	r3, #61696	; 0xf100
     712:	f2c4 030f 	movt	r3, #16399	; 0x400f
     716:	60fb      	str	r3, [r7, #12]
     718:	e00a      	b.n	730 <gpioPortGet+0xa8>
    default:
        assert(0);
     71a:	f642 4020 	movw	r0, #11296	; 0x2c20
     71e:	f2c0 0000 	movt	r0, #0
     722:	f04f 012e 	mov.w	r1, #46	; 0x2e
     726:	f7ff ff1b 	bl	560 <assert_>
        return 0;
     72a:	f04f 0300 	mov.w	r3, #0
     72e:	e000      	b.n	732 <gpioPortGet+0xaa>
    }

    return ((volatile gpioPort_t *) addr);
     730:	68fb      	ldr	r3, [r7, #12]
}
     732:	4618      	mov	r0, r3
     734:	f107 0710 	add.w	r7, r7, #16
     738:	46bd      	mov	sp, r7
     73a:	bd80      	pop	{r7, pc}

0000073c <gpioConfig>:
*
* RETURNS: Nothing
*
*******************************************************************************/
void gpioConfig(uint32_t port, uint32_t pin, uint32_t opt)
{
     73c:	b580      	push	{r7, lr}
     73e:	b088      	sub	sp, #32
     740:	af00      	add	r7, sp, #0
     742:	60f8      	str	r0, [r7, #12]
     744:	60b9      	str	r1, [r7, #8]
     746:	607a      	str	r2, [r7, #4]
    /*
     * Ensure pin number is legal
     */

    assert((pin < 32));
     748:	68bb      	ldr	r3, [r7, #8]
     74a:	2b1f      	cmp	r3, #31
     74c:	d907      	bls.n	75e <gpioConfig+0x22>
     74e:	f642 4020 	movw	r0, #11296	; 0x2c20
     752:	f2c0 0000 	movt	r0, #0
     756:	f04f 0145 	mov.w	r1, #69	; 0x45
     75a:	f7ff ff01 	bl	560 <assert_>

    /*
     * Config the SIM Clock Gate
     */

    switch (port) {
     75e:	68fb      	ldr	r3, [r7, #12]
     760:	f44f 4230 	mov.w	r2, #45056	; 0xb000
     764:	f2c4 0204 	movt	r2, #16388	; 0x4004
     768:	4293      	cmp	r3, r2
     76a:	d039      	beq.n	7e0 <gpioConfig+0xa4>
     76c:	f44f 4230 	mov.w	r2, #45056	; 0xb000
     770:	f2c4 0204 	movt	r2, #16388	; 0x4004
     774:	4293      	cmp	r3, r2
     776:	d80c      	bhi.n	792 <gpioConfig+0x56>
     778:	f44f 4210 	mov.w	r2, #36864	; 0x9000
     77c:	f2c4 0204 	movt	r2, #16388	; 0x4004
     780:	4293      	cmp	r3, r2
     782:	d013      	beq.n	7ac <gpioConfig+0x70>
     784:	f44f 4220 	mov.w	r2, #40960	; 0xa000
     788:	f2c4 0204 	movt	r2, #16388	; 0x4004
     78c:	4293      	cmp	r3, r2
     78e:	d01a      	beq.n	7c6 <gpioConfig+0x8a>
     790:	e04d      	b.n	82e <STACK_SIZE+0x2e>
     792:	f44f 4240 	mov.w	r2, #49152	; 0xc000
     796:	f2c4 0204 	movt	r2, #16388	; 0x4004
     79a:	4293      	cmp	r3, r2
     79c:	d02d      	beq.n	7fa <gpioConfig+0xbe>
     79e:	f44f 4250 	mov.w	r2, #53248	; 0xd000
     7a2:	f2c4 0204 	movt	r2, #16388	; 0x4004
     7a6:	4293      	cmp	r3, r2
     7a8:	d034      	beq.n	814 <STACK_SIZE+0x14>
     7aa:	e040      	b.n	82e <STACK_SIZE+0x2e>
    case PORTA: SIM_SCGC5 |= SIM_SCGC5_PORTA_ENABLE; break;
     7ac:	f248 0338 	movw	r3, #32824	; 0x8038
     7b0:	f2c4 0304 	movt	r3, #16388	; 0x4004
     7b4:	f248 0238 	movw	r2, #32824	; 0x8038
     7b8:	f2c4 0204 	movt	r2, #16388	; 0x4004
     7bc:	6812      	ldr	r2, [r2, #0]
     7be:	f442 7200 	orr.w	r2, r2, #512	; 0x200
     7c2:	601a      	str	r2, [r3, #0]
     7c4:	e03c      	b.n	840 <STACK_SIZE+0x40>
    case PORTB: SIM_SCGC5 |= SIM_SCGC5_PORTB_ENABLE; break;
     7c6:	f248 0338 	movw	r3, #32824	; 0x8038
     7ca:	f2c4 0304 	movt	r3, #16388	; 0x4004
     7ce:	f248 0238 	movw	r2, #32824	; 0x8038
     7d2:	f2c4 0204 	movt	r2, #16388	; 0x4004
     7d6:	6812      	ldr	r2, [r2, #0]
     7d8:	f442 6280 	orr.w	r2, r2, #1024	; 0x400
     7dc:	601a      	str	r2, [r3, #0]
     7de:	e02f      	b.n	840 <STACK_SIZE+0x40>
    case PORTC: SIM_SCGC5 |= SIM_SCGC5_PORTC_ENABLE; break;
     7e0:	f248 0338 	movw	r3, #32824	; 0x8038
     7e4:	f2c4 0304 	movt	r3, #16388	; 0x4004
     7e8:	f248 0238 	movw	r2, #32824	; 0x8038
     7ec:	f2c4 0204 	movt	r2, #16388	; 0x4004
     7f0:	6812      	ldr	r2, [r2, #0]
     7f2:	f442 6200 	orr.w	r2, r2, #2048	; 0x800
     7f6:	601a      	str	r2, [r3, #0]
     7f8:	e022      	b.n	840 <STACK_SIZE+0x40>
    case PORTD: SIM_SCGC5 |= SIM_SCGC5_PORTD_ENABLE; break;
     7fa:	f248 0338 	movw	r3, #32824	; 0x8038
     7fe:	f2c4 0304 	movt	r3, #16388	; 0x4004
     802:	f248 0238 	movw	r2, #32824	; 0x8038
     806:	f2c4 0204 	movt	r2, #16388	; 0x4004
     80a:	6812      	ldr	r2, [r2, #0]
     80c:	f442 5280 	orr.w	r2, r2, #4096	; 0x1000
     810:	601a      	str	r2, [r3, #0]
     812:	e015      	b.n	840 <STACK_SIZE+0x40>
    case PORTE: SIM_SCGC5 |= SIM_SCGC5_PORTE_ENABLE; break;
     814:	f248 0338 	movw	r3, #32824	; 0x8038
     818:	f2c4 0304 	movt	r3, #16388	; 0x4004
     81c:	f248 0238 	movw	r2, #32824	; 0x8038
     820:	f2c4 0204 	movt	r2, #16388	; 0x4004
     824:	6812      	ldr	r2, [r2, #0]
     826:	f442 5200 	orr.w	r2, r2, #8192	; 0x2000
     82a:	601a      	str	r2, [r3, #0]
     82c:	e008      	b.n	840 <STACK_SIZE+0x40>
    default:
        assert(0);
     82e:	f642 4020 	movw	r0, #11296	; 0x2c20
     832:	f2c0 0000 	movt	r0, #0
     836:	f04f 0152 	mov.w	r1, #82	; 0x52
     83a:	f7ff fe91 	bl	560 <assert_>
        return;
     83e:	e07a      	b.n	936 <STACK_SIZE+0x136>

    /*
     * Configure the Port Controller
     */

    uint32_t portCtrlBits = PORT_MUX_GPIO;
     840:	f44f 7380 	mov.w	r3, #256	; 0x100
     844:	61fb      	str	r3, [r7, #28]

    if (opt & GPIO_OUTPUT) {
     846:	687b      	ldr	r3, [r7, #4]
     848:	f003 0302 	and.w	r3, r3, #2
     84c:	2b00      	cmp	r3, #0
     84e:	d013      	beq.n	878 <STACK_SIZE+0x78>
        if (opt & GPIO_ODE) {
     850:	687b      	ldr	r3, [r7, #4]
     852:	f003 0308 	and.w	r3, r3, #8
     856:	2b00      	cmp	r3, #0
     858:	d004      	beq.n	864 <STACK_SIZE+0x64>
            portCtrlBits |= PORT_ODE;
     85a:	69fb      	ldr	r3, [r7, #28]
     85c:	f043 0320 	orr.w	r3, r3, #32
     860:	61fb      	str	r3, [r7, #28]
     862:	e022      	b.n	8aa <STACK_SIZE+0xaa>
        } else {
            if (opt & GPIO_DSE)
     864:	687b      	ldr	r3, [r7, #4]
     866:	f003 0304 	and.w	r3, r3, #4
     86a:	2b00      	cmp	r3, #0
     86c:	d01d      	beq.n	8aa <STACK_SIZE+0xaa>
                portCtrlBits |= PORT_DSE;
     86e:	69fb      	ldr	r3, [r7, #28]
     870:	f043 0340 	orr.w	r3, r3, #64	; 0x40
     874:	61fb      	str	r3, [r7, #28]
     876:	e018      	b.n	8aa <STACK_SIZE+0xaa>
        }

    } else if (opt & GPIO_INPUT) {
     878:	687b      	ldr	r3, [r7, #4]
     87a:	f003 0301 	and.w	r3, r3, #1
     87e:	b2db      	uxtb	r3, r3
     880:	2b00      	cmp	r3, #0
     882:	d009      	beq.n	898 <STACK_SIZE+0x98>
        if (opt & GPIO_PFE)
     884:	687b      	ldr	r3, [r7, #4]
     886:	f003 0340 	and.w	r3, r3, #64	; 0x40
     88a:	2b00      	cmp	r3, #0
     88c:	d00d      	beq.n	8aa <STACK_SIZE+0xaa>
            portCtrlBits |= PORT_PFE;
     88e:	69fb      	ldr	r3, [r7, #28]
     890:	f043 0310 	orr.w	r3, r3, #16
     894:	61fb      	str	r3, [r7, #28]
     896:	e008      	b.n	8aa <STACK_SIZE+0xaa>

    } else {
        assert(0);
     898:	f642 4020 	movw	r0, #11296	; 0x2c20
     89c:	f2c0 0000 	movt	r0, #0
     8a0:	f04f 0169 	mov.w	r1, #105	; 0x69
     8a4:	f7ff fe5c 	bl	560 <assert_>
        return;
     8a8:	e045      	b.n	936 <STACK_SIZE+0x136>
    }

    if (opt & GPIO_PULLUP)
     8aa:	687b      	ldr	r3, [r7, #4]
     8ac:	f003 0380 	and.w	r3, r3, #128	; 0x80
     8b0:	2b00      	cmp	r3, #0
     8b2:	d004      	beq.n	8be <STACK_SIZE+0xbe>
        portCtrlBits |= PORT_PULLUP_ENABLE;
     8b4:	69fb      	ldr	r3, [r7, #28]
     8b6:	f043 0303 	orr.w	r3, r3, #3
     8ba:	61fb      	str	r3, [r7, #28]
     8bc:	e008      	b.n	8d0 <STACK_SIZE+0xd0>
    else if (opt & GPIO_PULLDOWN)
     8be:	687b      	ldr	r3, [r7, #4]
     8c0:	f403 7380 	and.w	r3, r3, #256	; 0x100
     8c4:	2b00      	cmp	r3, #0
     8c6:	d003      	beq.n	8d0 <STACK_SIZE+0xd0>
        portCtrlBits |= PORT_PULLDOWN_ENABLE;
     8c8:	69fb      	ldr	r3, [r7, #28]
     8ca:	f043 0302 	orr.w	r3, r3, #2
     8ce:	61fb      	str	r3, [r7, #28]

    PORT_PCR(port, pin) = portCtrlBits;
     8d0:	68bb      	ldr	r3, [r7, #8]
     8d2:	ea4f 0283 	mov.w	r2, r3, lsl #2
     8d6:	68fb      	ldr	r3, [r7, #12]
     8d8:	18d3      	adds	r3, r2, r3
     8da:	69fa      	ldr	r2, [r7, #28]
     8dc:	601a      	str	r2, [r3, #0]

    /*
     * Configure the GPIO Controller
     */

    volatile gpioPort_t *gpioPort = gpioPortGet(port);
     8de:	68f8      	ldr	r0, [r7, #12]
     8e0:	f7ff fed2 	bl	688 <gpioPortGet>
     8e4:	61b8      	str	r0, [r7, #24]
    uint32_t pinBit = 1 << pin;
     8e6:	68bb      	ldr	r3, [r7, #8]
     8e8:	f04f 0201 	mov.w	r2, #1
     8ec:	fa02 f303 	lsl.w	r3, r2, r3
     8f0:	617b      	str	r3, [r7, #20]

    if (opt & GPIO_OUTPUT) {
     8f2:	687b      	ldr	r3, [r7, #4]
     8f4:	f003 0302 	and.w	r3, r3, #2
     8f8:	2b00      	cmp	r3, #0
     8fa:	d01c      	beq.n	936 <STACK_SIZE+0x136>
        gpioPort->pddr |= pinBit;
     8fc:	69bb      	ldr	r3, [r7, #24]
     8fe:	695a      	ldr	r2, [r3, #20]
     900:	697b      	ldr	r3, [r7, #20]
     902:	431a      	orrs	r2, r3
     904:	69bb      	ldr	r3, [r7, #24]
     906:	615a      	str	r2, [r3, #20]
        if (opt & GPIO_HIGH)
     908:	687b      	ldr	r3, [r7, #4]
     90a:	f003 0310 	and.w	r3, r3, #16
     90e:	2b00      	cmp	r3, #0
     910:	d006      	beq.n	920 <STACK_SIZE+0x120>
            gpioPort->psor |= pinBit;
     912:	69bb      	ldr	r3, [r7, #24]
     914:	685a      	ldr	r2, [r3, #4]
     916:	697b      	ldr	r3, [r7, #20]
     918:	431a      	orrs	r2, r3
     91a:	69bb      	ldr	r3, [r7, #24]
     91c:	605a      	str	r2, [r3, #4]
     91e:	e00a      	b.n	936 <STACK_SIZE+0x136>
        else if (opt & GPIO_LOW)
     920:	687b      	ldr	r3, [r7, #4]
     922:	f003 0320 	and.w	r3, r3, #32
     926:	2b00      	cmp	r3, #0
     928:	d005      	beq.n	936 <STACK_SIZE+0x136>
            gpioPort->pcor |= pinBit;
     92a:	69bb      	ldr	r3, [r7, #24]
     92c:	689a      	ldr	r2, [r3, #8]
     92e:	697b      	ldr	r3, [r7, #20]
     930:	431a      	orrs	r2, r3
     932:	69bb      	ldr	r3, [r7, #24]
     934:	609a      	str	r2, [r3, #8]
    }
}
     936:	f107 0720 	add.w	r7, r7, #32
     93a:	46bd      	mov	sp, r7
     93c:	bd80      	pop	{r7, pc}
     93e:	bf00      	nop

00000940 <gpioSet>:

/*******************************************************************************
* gpioSet
*******************************************************************************/
void gpioSet(uint32_t port, uint32_t pin)
{
     940:	b580      	push	{r7, lr}
     942:	b084      	sub	sp, #16
     944:	af00      	add	r7, sp, #0
     946:	6078      	str	r0, [r7, #4]
     948:	6039      	str	r1, [r7, #0]
    volatile gpioPort_t *gpioPort = gpioPortGet(port);
     94a:	6878      	ldr	r0, [r7, #4]
     94c:	f7ff fe9c 	bl	688 <gpioPortGet>
     950:	60f8      	str	r0, [r7, #12]
    gpioPort->psor = 1 << pin;
     952:	683b      	ldr	r3, [r7, #0]
     954:	f04f 0201 	mov.w	r2, #1
     958:	fa02 f303 	lsl.w	r3, r2, r3
     95c:	461a      	mov	r2, r3
     95e:	68fb      	ldr	r3, [r7, #12]
     960:	605a      	str	r2, [r3, #4]
}
     962:	f107 0710 	add.w	r7, r7, #16
     966:	46bd      	mov	sp, r7
     968:	bd80      	pop	{r7, pc}
     96a:	bf00      	nop

0000096c <gpioClear>:

/*******************************************************************************
* gpioClear
*******************************************************************************/
void gpioClear(uint32_t port, uint32_t pin)
{
     96c:	b580      	push	{r7, lr}
     96e:	b084      	sub	sp, #16
     970:	af00      	add	r7, sp, #0
     972:	6078      	str	r0, [r7, #4]
     974:	6039      	str	r1, [r7, #0]
    volatile gpioPort_t *gpioPort = gpioPortGet(port);
     976:	6878      	ldr	r0, [r7, #4]
     978:	f7ff fe86 	bl	688 <gpioPortGet>
     97c:	60f8      	str	r0, [r7, #12]
    gpioPort->pcor = 1 << pin;
     97e:	683b      	ldr	r3, [r7, #0]
     980:	f04f 0201 	mov.w	r2, #1
     984:	fa02 f303 	lsl.w	r3, r2, r3
     988:	461a      	mov	r2, r3
     98a:	68fb      	ldr	r3, [r7, #12]
     98c:	609a      	str	r2, [r3, #8]
}
     98e:	f107 0710 	add.w	r7, r7, #16
     992:	46bd      	mov	sp, r7
     994:	bd80      	pop	{r7, pc}
     996:	bf00      	nop

00000998 <gpioToggle>:

/*******************************************************************************
* gpioToggle
*******************************************************************************/
void gpioToggle(uint32_t port, uint32_t pin)
{
     998:	b580      	push	{r7, lr}
     99a:	b084      	sub	sp, #16
     99c:	af00      	add	r7, sp, #0
     99e:	6078      	str	r0, [r7, #4]
     9a0:	6039      	str	r1, [r7, #0]
    volatile gpioPort_t *gpioPort = gpioPortGet(port);
     9a2:	6878      	ldr	r0, [r7, #4]
     9a4:	f7ff fe70 	bl	688 <gpioPortGet>
     9a8:	60f8      	str	r0, [r7, #12]
    gpioPort->ptor = 1 << pin;
     9aa:	683b      	ldr	r3, [r7, #0]
     9ac:	f04f 0201 	mov.w	r2, #1
     9b0:	fa02 f303 	lsl.w	r3, r2, r3
     9b4:	461a      	mov	r2, r3
     9b6:	68fb      	ldr	r3, [r7, #12]
     9b8:	60da      	str	r2, [r3, #12]
}
     9ba:	f107 0710 	add.w	r7, r7, #16
     9be:	46bd      	mov	sp, r7
     9c0:	bd80      	pop	{r7, pc}
     9c2:	bf00      	nop

000009c4 <gpioPortWrite>:
*
* RETURNS:
*
*******************************************************************************/
void gpioPortWrite(uint32_t port, uint32_t mask, uint32_t value)
{
     9c4:	b480      	push	{r7}
     9c6:	b085      	sub	sp, #20
     9c8:	af00      	add	r7, sp, #0
     9ca:	60f8      	str	r0, [r7, #12]
     9cc:	60b9      	str	r1, [r7, #8]
     9ce:	607a      	str	r2, [r7, #4]
}
     9d0:	f107 0714 	add.w	r7, r7, #20
     9d4:	46bd      	mov	sp, r7
     9d6:	bc80      	pop	{r7}
     9d8:	4770      	bx	lr
     9da:	bf00      	nop

000009dc <gpioPortRead>:
*
* RETURNS:
*
*******************************************************************************/
uint32_t gpioPortRead(uint32_t port)
{
     9dc:	b480      	push	{r7}
     9de:	b083      	sub	sp, #12
     9e0:	af00      	add	r7, sp, #0
     9e2:	6078      	str	r0, [r7, #4]
    return 0;
     9e4:	f04f 0300 	mov.w	r3, #0
}
     9e8:	4618      	mov	r0, r3
     9ea:	f107 070c 	add.w	r7, r7, #12
     9ee:	46bd      	mov	sp, r7
     9f0:	bc80      	pop	{r7}
     9f2:	4770      	bx	lr

000009f4 <gpioRead>:
*
* RETURNS:
*
*******************************************************************************/
uint32_t gpioRead(uint32_t port, uint32_t pin)
{
     9f4:	b580      	push	{r7, lr}
     9f6:	b084      	sub	sp, #16
     9f8:	af00      	add	r7, sp, #0
     9fa:	6078      	str	r0, [r7, #4]
     9fc:	6039      	str	r1, [r7, #0]
    volatile gpioPort_t *gpioPort = gpioPortGet(port);
     9fe:	6878      	ldr	r0, [r7, #4]
     a00:	f7ff fe42 	bl	688 <gpioPortGet>
     a04:	60f8      	str	r0, [r7, #12]
    return ((gpioPort->pdir & (1 << pin)) ? TRUE : FALSE);
     a06:	68fb      	ldr	r3, [r7, #12]
     a08:	691a      	ldr	r2, [r3, #16]
     a0a:	683b      	ldr	r3, [r7, #0]
     a0c:	f04f 0101 	mov.w	r1, #1
     a10:	fa01 f303 	lsl.w	r3, r1, r3
     a14:	4013      	ands	r3, r2
     a16:	2b00      	cmp	r3, #0
     a18:	bf0c      	ite	eq
     a1a:	2300      	moveq	r3, #0
     a1c:	2301      	movne	r3, #1
}
     a1e:	4618      	mov	r0, r3
     a20:	f107 0710 	add.w	r7, r7, #16
     a24:	46bd      	mov	sp, r7
     a26:	bd80      	pop	{r7, pc}

00000a28 <fei2fee>:
    .flashDiv     = FLASH_DIVIDER_DFLT,
};


static void fei2fee(clockConfig_t cc)
{
     a28:	b480      	push	{r7}
     a2a:	b083      	sub	sp, #12
     a2c:	af00      	add	r7, sp, #0
     a2e:	4603      	mov	r3, r0
     a30:	71fb      	strb	r3, [r7, #7]
     * Uno problemo: The largest divide factor available by FRDIV is 1024... And
     * 50MHz / 1024 = 48.3 kHz, which exceeds the 39.0625 kHz range. With our
     * setup, it doesn't seem that we can reach a FEE mode (and I don't want to
     * risk the tower to see what could happen if I did!)
     */
}
     a32:	f107 070c 	add.w	r7, r7, #12
     a36:	46bd      	mov	sp, r7
     a38:	bc80      	pop	{r7}
     a3a:	4770      	bx	lr

00000a3c <fei2pee>:

static void fei2pee(clockConfig_t cc)
{
     a3c:	b480      	push	{r7}
     a3e:	b083      	sub	sp, #12
     a40:	af00      	add	r7, sp, #0
     a42:	4603      	mov	r3, r0
     a44:	71fb      	strb	r3, [r7, #7]
                                                    /* External crystal setup */
    /* Select the OSCCLK */
    SIM_SOPT2 &= ~SIM_SOPT2_MCGCLKSEL;
     a46:	f248 0304 	movw	r3, #32772	; 0x8004
     a4a:	f2c4 0304 	movt	r3, #16388	; 0x4004
     a4e:	f248 0204 	movw	r2, #32772	; 0x8004
     a52:	f2c4 0204 	movt	r2, #16388	; 0x4004
     a56:	6812      	ldr	r2, [r2, #0]
     a58:	f022 0201 	bic.w	r2, r2, #1
     a5c:	601a      	str	r2, [r3, #0]
     * Enabling the XTAL for 50MHz
     * RANGE=1, match the frequency of the crystal being used
     * HGO=1,   set for high gain operation (best against noise)
     * EREFS=1, enable the external oscillator
     */
    clock.mcg->c2 = (MCG_C2_RANGE_MASK & (0x1 << 4)) |
     a5e:	f240 4300 	movw	r3, #1024	; 0x400
     a62:	f2c2 0300 	movt	r3, #8192	; 0x2000
     a66:	681b      	ldr	r3, [r3, #0]
     a68:	f04f 021c 	mov.w	r2, #28
     a6c:	705a      	strb	r2, [r3, #1]
     * mode from FBE (here we are going to PEE)
     *
     * IREFS=0, select external reference clock and enable the external
     * oscillator.
     */
    clock.mcg->c1 = ((MCG_C1_CLKS_MASK & (0x2 << 6)) |
     a6e:	f240 4300 	movw	r3, #1024	; 0x400
     a72:	f2c2 0300 	movt	r3, #8192	; 0x2000
     a76:	681b      	ldr	r3, [r3, #0]
     a78:	f04f 0298 	mov.w	r2, #152	; 0x98
     a7c:	701a      	strb	r2, [r3, #0]
                    (MCG_C1_FRDIV_MASK & (0x3 << 3))) &
                    (~MCG_C1_IREFS);

                                                    /* Wait for status update */
    /* Wait for oscillator to initialize */
    while (!(clock.mcg->s & MCG_S_OSCINIT)) {}
     a7e:	bf00      	nop
     a80:	f240 4300 	movw	r3, #1024	; 0x400
     a84:	f2c2 0300 	movt	r3, #8192	; 0x2000
     a88:	681b      	ldr	r3, [r3, #0]
     a8a:	799b      	ldrb	r3, [r3, #6]
     a8c:	b2db      	uxtb	r3, r3
     a8e:	f003 0302 	and.w	r3, r3, #2
     a92:	2b00      	cmp	r3, #0
     a94:	d0f4      	beq.n	a80 <fei2pee+0x44>
    /* Wait for reference clock's to become the external reference */
    while (clock.mcg->s & MCG_S_IREFST) {}
     a96:	bf00      	nop
     a98:	f240 4300 	movw	r3, #1024	; 0x400
     a9c:	f2c2 0300 	movt	r3, #8192	; 0x2000
     aa0:	681b      	ldr	r3, [r3, #0]
     aa2:	799b      	ldrb	r3, [r3, #6]
     aa4:	b2db      	uxtb	r3, r3
     aa6:	f003 0310 	and.w	r3, r3, #16
     aaa:	2b00      	cmp	r3, #0
     aac:	d1f4      	bne.n	a98 <fei2pee+0x5c>
    /* Wait for the indicator that MCGOTUCLK is fed by the external ref clock */
    while ((clock.mcg->s & MCG_S_CLKST_MASK) != (0x2 << 2)) {}
     aae:	bf00      	nop
     ab0:	f240 4300 	movw	r3, #1024	; 0x400
     ab4:	f2c2 0300 	movt	r3, #8192	; 0x2000
     ab8:	681b      	ldr	r3, [r3, #0]
     aba:	799b      	ldrb	r3, [r3, #6]
     abc:	b2db      	uxtb	r3, r3
     abe:	f003 030c 	and.w	r3, r3, #12
     ac2:	2b08      	cmp	r3, #8
     ac4:	d1f4      	bne.n	ab0 <fei2pee+0x74>

                                            /* Generate correct PLL frequency */
    clock.mcg->c5 &= 0xE0; /* clear bits */
     ac6:	f240 4300 	movw	r3, #1024	; 0x400
     aca:	f2c2 0300 	movt	r3, #8192	; 0x2000
     ace:	681a      	ldr	r2, [r3, #0]
     ad0:	f240 4300 	movw	r3, #1024	; 0x400
     ad4:	f2c2 0300 	movt	r3, #8192	; 0x2000
     ad8:	681b      	ldr	r3, [r3, #0]
     ada:	791b      	ldrb	r3, [r3, #4]
     adc:	b2db      	uxtb	r3, r3
     ade:	f023 031f 	bic.w	r3, r3, #31
     ae2:	b2db      	uxtb	r3, r3
     ae4:	7113      	strb	r3, [r2, #4]
    clock.mcg->c5 |= clockConfigParam[cc].divider;
     ae6:	f240 4300 	movw	r3, #1024	; 0x400
     aea:	f2c2 0300 	movt	r3, #8192	; 0x2000
     aee:	6819      	ldr	r1, [r3, #0]
     af0:	f240 4300 	movw	r3, #1024	; 0x400
     af4:	f2c2 0300 	movt	r3, #8192	; 0x2000
     af8:	681b      	ldr	r3, [r3, #0]
     afa:	791b      	ldrb	r3, [r3, #4]
     afc:	b2d8      	uxtb	r0, r3
     afe:	79fb      	ldrb	r3, [r7, #7]
     b00:	f240 420c 	movw	r2, #1036	; 0x40c
     b04:	f2c2 0200 	movt	r2, #8192	; 0x2000
     b08:	ea4f 03c3 	mov.w	r3, r3, lsl #3
     b0c:	18d3      	adds	r3, r2, r3
     b0e:	785b      	ldrb	r3, [r3, #1]
     b10:	4303      	orrs	r3, r0
     b12:	b2db      	uxtb	r3, r3
     b14:	710b      	strb	r3, [r1, #4]
    clock.mcg->c6 &= 0xE0;
     b16:	f240 4300 	movw	r3, #1024	; 0x400
     b1a:	f2c2 0300 	movt	r3, #8192	; 0x2000
     b1e:	681a      	ldr	r2, [r3, #0]
     b20:	f240 4300 	movw	r3, #1024	; 0x400
     b24:	f2c2 0300 	movt	r3, #8192	; 0x2000
     b28:	681b      	ldr	r3, [r3, #0]
     b2a:	795b      	ldrb	r3, [r3, #5]
     b2c:	b2db      	uxtb	r3, r3
     b2e:	f023 031f 	bic.w	r3, r3, #31
     b32:	b2db      	uxtb	r3, r3
     b34:	7153      	strb	r3, [r2, #5]
    clock.mcg->c6 |= clockConfigParam[cc].multiplier;
     b36:	f240 4300 	movw	r3, #1024	; 0x400
     b3a:	f2c2 0300 	movt	r3, #8192	; 0x2000
     b3e:	6819      	ldr	r1, [r3, #0]
     b40:	f240 4300 	movw	r3, #1024	; 0x400
     b44:	f2c2 0300 	movt	r3, #8192	; 0x2000
     b48:	681b      	ldr	r3, [r3, #0]
     b4a:	795b      	ldrb	r3, [r3, #5]
     b4c:	b2d8      	uxtb	r0, r3
     b4e:	79fb      	ldrb	r3, [r7, #7]
     b50:	f240 420c 	movw	r2, #1036	; 0x40c
     b54:	f2c2 0200 	movt	r2, #8192	; 0x2000
     b58:	ea4f 03c3 	mov.w	r3, r3, lsl #3
     b5c:	18d3      	adds	r3, r2, r3
     b5e:	789b      	ldrb	r3, [r3, #2]
     b60:	4303      	orrs	r3, r0
     b62:	b2db      	uxtb	r3, r3
     b64:	714b      	strb	r3, [r1, #5]
                                                            /* Enter PBE mode */
    /* PLLS=1, select the PLL. */
    clock.mcg->c6 |= MCG_C6_PLLS;
     b66:	f240 4300 	movw	r3, #1024	; 0x400
     b6a:	f2c2 0300 	movt	r3, #8192	; 0x2000
     b6e:	681a      	ldr	r2, [r3, #0]
     b70:	f240 4300 	movw	r3, #1024	; 0x400
     b74:	f2c2 0300 	movt	r3, #8192	; 0x2000
     b78:	681b      	ldr	r3, [r3, #0]
     b7a:	795b      	ldrb	r3, [r3, #5]
     b7c:	b2db      	uxtb	r3, r3
     b7e:	f043 0340 	orr.w	r3, r3, #64	; 0x40
     b82:	b2db      	uxtb	r3, r3
     b84:	7153      	strb	r3, [r2, #5]

                                                    /* Wait for status update */
    /* Wait for the PLL to be the clock source */
    while (!(clock.mcg->s & MCG_S_PLLST)) {}
     b86:	bf00      	nop
     b88:	f240 4300 	movw	r3, #1024	; 0x400
     b8c:	f2c2 0300 	movt	r3, #8192	; 0x2000
     b90:	681b      	ldr	r3, [r3, #0]
     b92:	799b      	ldrb	r3, [r3, #6]
     b94:	b2db      	uxtb	r3, r3
     b96:	f003 0320 	and.w	r3, r3, #32
     b9a:	2b00      	cmp	r3, #0
     b9c:	d0f4      	beq.n	b88 <fei2pee+0x14c>
    /* Wait until the PLL has acquired lock on the external frequency */
    while (!(clock.mcg->s & MCG_S_LOCK)) {}
     b9e:	bf00      	nop
     ba0:	f240 4300 	movw	r3, #1024	; 0x400
     ba4:	f2c2 0300 	movt	r3, #8192	; 0x2000
     ba8:	681b      	ldr	r3, [r3, #0]
     baa:	799b      	ldrb	r3, [r3, #6]
     bac:	b2db      	uxtb	r3, r3
     bae:	f003 0340 	and.w	r3, r3, #64	; 0x40
     bb2:	2b00      	cmp	r3, #0
     bb4:	d0f4      	beq.n	ba0 <fei2pee+0x164>

                                                            /* Enter PEE mode */
    /* Select the output of the PLL */
    clock.mcg->c1 &= ~MCG_C1_CLKS_MASK;
     bb6:	f240 4300 	movw	r3, #1024	; 0x400
     bba:	f2c2 0300 	movt	r3, #8192	; 0x2000
     bbe:	681a      	ldr	r2, [r3, #0]
     bc0:	f240 4300 	movw	r3, #1024	; 0x400
     bc4:	f2c2 0300 	movt	r3, #8192	; 0x2000
     bc8:	681b      	ldr	r3, [r3, #0]
     bca:	781b      	ldrb	r3, [r3, #0]
     bcc:	b2db      	uxtb	r3, r3
     bce:	f003 033f 	and.w	r3, r3, #63	; 0x3f
     bd2:	b2db      	uxtb	r3, r3
     bd4:	7013      	strb	r3, [r2, #0]

                                                    /* Wait for status update */
    /* Wait until output of the PLL is selected */
    while ((clock.mcg->s & MCG_S_CLKST_MASK) != (0x3 << 2)) {}
     bd6:	bf00      	nop
     bd8:	f240 4300 	movw	r3, #1024	; 0x400
     bdc:	f2c2 0300 	movt	r3, #8192	; 0x2000
     be0:	681b      	ldr	r3, [r3, #0]
     be2:	799b      	ldrb	r3, [r3, #6]
     be4:	b2db      	uxtb	r3, r3
     be6:	f003 030c 	and.w	r3, r3, #12
     bea:	2b0c      	cmp	r3, #12
     bec:	d1f4      	bne.n	bd8 <fei2pee+0x19c>

    mcgState.currentMode = MODE_PEE;
     bee:	f240 53e8 	movw	r3, #1512	; 0x5e8
     bf2:	f2c2 0300 	movt	r3, #8192	; 0x2000
     bf6:	f04f 0202 	mov.w	r2, #2
     bfa:	701a      	strb	r2, [r3, #0]
}
     bfc:	f107 070c 	add.w	r7, r7, #12
     c00:	46bd      	mov	sp, r7
     c02:	bc80      	pop	{r7}
     c04:	4770      	bx	lr
     c06:	bf00      	nop

00000c08 <fei2blpi>:

static void fei2blpi(clockConfig_t cc)
{
     c08:	b480      	push	{r7}
     c0a:	b083      	sub	sp, #12
     c0c:	af00      	add	r7, sp, #0
     c0e:	4603      	mov	r3, r0
     c10:	71fb      	strb	r3, [r7, #7]
                                                            /* Not configured */
}
     c12:	f107 070c 	add.w	r7, r7, #12
     c16:	46bd      	mov	sp, r7
     c18:	bc80      	pop	{r7}
     c1a:	4770      	bx	lr

00000c1c <fei2blpe>:

static void fei2blpe(clockConfig_t cc)
{
     c1c:	b480      	push	{r7}
     c1e:	b083      	sub	sp, #12
     c20:	af00      	add	r7, sp, #0
     c22:	4603      	mov	r3, r0
     c24:	71fb      	strb	r3, [r7, #7]
                                                            /* Not configured */
}
     c26:	f107 070c 	add.w	r7, r7, #12
     c2a:	46bd      	mov	sp, r7
     c2c:	bc80      	pop	{r7}
     c2e:	4770      	bx	lr

00000c30 <fee2fei>:


static void fee2fei(clockConfig_t cc)
{
     c30:	b480      	push	{r7}
     c32:	b083      	sub	sp, #12
     c34:	af00      	add	r7, sp, #0
     c36:	4603      	mov	r3, r0
     c38:	71fb      	strb	r3, [r7, #7]
                                                            /* Not configured */
}
     c3a:	f107 070c 	add.w	r7, r7, #12
     c3e:	46bd      	mov	sp, r7
     c40:	bc80      	pop	{r7}
     c42:	4770      	bx	lr

00000c44 <fee2pee>:

static void fee2pee(clockConfig_t cc)
{
     c44:	b480      	push	{r7}
     c46:	b083      	sub	sp, #12
     c48:	af00      	add	r7, sp, #0
     c4a:	4603      	mov	r3, r0
     c4c:	71fb      	strb	r3, [r7, #7]
                                                            /* Not configured */
}
     c4e:	f107 070c 	add.w	r7, r7, #12
     c52:	46bd      	mov	sp, r7
     c54:	bc80      	pop	{r7}
     c56:	4770      	bx	lr

00000c58 <fee2blpi>:

static void fee2blpi(clockConfig_t cc)
{
     c58:	b480      	push	{r7}
     c5a:	b083      	sub	sp, #12
     c5c:	af00      	add	r7, sp, #0
     c5e:	4603      	mov	r3, r0
     c60:	71fb      	strb	r3, [r7, #7]
                                                            /* Not configured */
}
     c62:	f107 070c 	add.w	r7, r7, #12
     c66:	46bd      	mov	sp, r7
     c68:	bc80      	pop	{r7}
     c6a:	4770      	bx	lr

00000c6c <fee2blpe>:

static void fee2blpe(clockConfig_t cc)
{
     c6c:	b480      	push	{r7}
     c6e:	b083      	sub	sp, #12
     c70:	af00      	add	r7, sp, #0
     c72:	4603      	mov	r3, r0
     c74:	71fb      	strb	r3, [r7, #7]
                                                            /* Not configured */
}
     c76:	f107 070c 	add.w	r7, r7, #12
     c7a:	46bd      	mov	sp, r7
     c7c:	bc80      	pop	{r7}
     c7e:	4770      	bx	lr

00000c80 <pee2fei>:


static void pee2fei(clockConfig_t cc)
{
     c80:	b480      	push	{r7}
     c82:	b083      	sub	sp, #12
     c84:	af00      	add	r7, sp, #0
     c86:	4603      	mov	r3, r0
     c88:	71fb      	strb	r3, [r7, #7]

                                                            /* Enter PBE mode */
    clock.mcg->c1 = (MCG_C1_CLKS_MASK & (0x2 << 6)); /* Select external clock */
     c8a:	f240 4300 	movw	r3, #1024	; 0x400
     c8e:	f2c2 0300 	movt	r3, #8192	; 0x2000
     c92:	681b      	ldr	r3, [r3, #0]
     c94:	f04f 0280 	mov.w	r2, #128	; 0x80
     c98:	701a      	strb	r2, [r3, #0]

                                                    /* Wait for status update */
    while ((clock.mcg->s & MCG_S_CLKST_MASK) != (0x2 << 2)) {}
     c9a:	bf00      	nop
     c9c:	f240 4300 	movw	r3, #1024	; 0x400
     ca0:	f2c2 0300 	movt	r3, #8192	; 0x2000
     ca4:	681b      	ldr	r3, [r3, #0]
     ca6:	799b      	ldrb	r3, [r3, #6]
     ca8:	b2db      	uxtb	r3, r3
     caa:	f003 030c 	and.w	r3, r3, #12
     cae:	2b08      	cmp	r3, #8
     cb0:	d1f4      	bne.n	c9c <pee2fei+0x1c>

                                                            /* Enter FBE mode */
    /*
     * With the FLL frequency valid, we can now clear the PLLS bit to select FLL
     */
    clock.mcg->c6 &= ~MCG_C6_PLLS;
     cb2:	f240 4300 	movw	r3, #1024	; 0x400
     cb6:	f2c2 0300 	movt	r3, #8192	; 0x2000
     cba:	681a      	ldr	r2, [r3, #0]
     cbc:	f240 4300 	movw	r3, #1024	; 0x400
     cc0:	f2c2 0300 	movt	r3, #8192	; 0x2000
     cc4:	681b      	ldr	r3, [r3, #0]
     cc6:	795b      	ldrb	r3, [r3, #5]
     cc8:	b2db      	uxtb	r3, r3
     cca:	f023 0340 	bic.w	r3, r3, #64	; 0x40
     cce:	b2db      	uxtb	r3, r3
     cd0:	7153      	strb	r3, [r2, #5]

                                                    /* Wait for status update */
    /* Wait until the current source is FLL */
    while (clock.mcg->s & MCG_S_PLLST) {}
     cd2:	bf00      	nop
     cd4:	f240 4300 	movw	r3, #1024	; 0x400
     cd8:	f2c2 0300 	movt	r3, #8192	; 0x2000
     cdc:	681b      	ldr	r3, [r3, #0]
     cde:	799b      	ldrb	r3, [r3, #6]
     ce0:	b2db      	uxtb	r3, r3
     ce2:	f003 0320 	and.w	r3, r3, #32
     ce6:	2b00      	cmp	r3, #0
     ce8:	d1f4      	bne.n	cd4 <pee2fei+0x54>

                                            /* Generate correct FLL frequency */
    clock.mcg->c4 = clockConfigParam[cc].multiplier;
     cea:	f240 4300 	movw	r3, #1024	; 0x400
     cee:	f2c2 0300 	movt	r3, #8192	; 0x2000
     cf2:	6819      	ldr	r1, [r3, #0]
     cf4:	79fb      	ldrb	r3, [r7, #7]
     cf6:	f240 420c 	movw	r2, #1036	; 0x40c
     cfa:	f2c2 0200 	movt	r2, #8192	; 0x2000
     cfe:	ea4f 03c3 	mov.w	r3, r3, lsl #3
     d02:	18d3      	adds	r3, r2, r3
     d04:	789b      	ldrb	r3, [r3, #2]
     d06:	70cb      	strb	r3, [r1, #3]

                                                            /* Enter FEI mode */
    clock.mcg->c1 = (MCG_C1_CLKS_MASK & (0x0 << 6)) |
     d08:	f240 4300 	movw	r3, #1024	; 0x400
     d0c:	f2c2 0300 	movt	r3, #8192	; 0x2000
     d10:	681b      	ldr	r3, [r3, #0]
     d12:	f04f 0204 	mov.w	r2, #4
     d16:	701a      	strb	r2, [r3, #0]
                    (MCG_C1_IREFS);

                                                    /* Wait for status update */
    /* Wait for reference clock's to become the internal reference */
    while (!(clock.mcg->s & MCG_S_IREFST)) {}
     d18:	bf00      	nop
     d1a:	f240 4300 	movw	r3, #1024	; 0x400
     d1e:	f2c2 0300 	movt	r3, #8192	; 0x2000
     d22:	681b      	ldr	r3, [r3, #0]
     d24:	799b      	ldrb	r3, [r3, #6]
     d26:	b2db      	uxtb	r3, r3
     d28:	f003 0310 	and.w	r3, r3, #16
     d2c:	2b00      	cmp	r3, #0
     d2e:	d0f4      	beq.n	d1a <pee2fei+0x9a>
    /* Wait until the output of the FLL is selected */
    while ((clock.mcg->s & MCG_S_CLKST_MASK) != (0x0 << 2)) {}
     d30:	bf00      	nop
     d32:	f240 4300 	movw	r3, #1024	; 0x400
     d36:	f2c2 0300 	movt	r3, #8192	; 0x2000
     d3a:	681b      	ldr	r3, [r3, #0]
     d3c:	799b      	ldrb	r3, [r3, #6]
     d3e:	b2db      	uxtb	r3, r3
     d40:	f003 030c 	and.w	r3, r3, #12
     d44:	2b00      	cmp	r3, #0
     d46:	d1f4      	bne.n	d32 <pee2fei+0xb2>

    mcgState.currentMode = MODE_FEI;
     d48:	f240 53e8 	movw	r3, #1512	; 0x5e8
     d4c:	f2c2 0300 	movt	r3, #8192	; 0x2000
     d50:	f04f 0200 	mov.w	r2, #0
     d54:	701a      	strb	r2, [r3, #0]
}
     d56:	f107 070c 	add.w	r7, r7, #12
     d5a:	46bd      	mov	sp, r7
     d5c:	bc80      	pop	{r7}
     d5e:	4770      	bx	lr

00000d60 <pee2fee>:

static void pee2fee(clockConfig_t cc)
{
     d60:	b480      	push	{r7}
     d62:	b083      	sub	sp, #12
     d64:	af00      	add	r7, sp, #0
     d66:	4603      	mov	r3, r0
     d68:	71fb      	strb	r3, [r7, #7]
                                                            /* Not configured */
}
     d6a:	f107 070c 	add.w	r7, r7, #12
     d6e:	46bd      	mov	sp, r7
     d70:	bc80      	pop	{r7}
     d72:	4770      	bx	lr

00000d74 <pee2blpi>:

static void pee2blpi(clockConfig_t cc)
{
     d74:	b480      	push	{r7}
     d76:	b083      	sub	sp, #12
     d78:	af00      	add	r7, sp, #0
     d7a:	4603      	mov	r3, r0
     d7c:	71fb      	strb	r3, [r7, #7]
                                                            /* Not configured */
}
     d7e:	f107 070c 	add.w	r7, r7, #12
     d82:	46bd      	mov	sp, r7
     d84:	bc80      	pop	{r7}
     d86:	4770      	bx	lr

00000d88 <pee2blpe>:

static void pee2blpe(clockConfig_t cc)
{
     d88:	b480      	push	{r7}
     d8a:	b083      	sub	sp, #12
     d8c:	af00      	add	r7, sp, #0
     d8e:	4603      	mov	r3, r0
     d90:	71fb      	strb	r3, [r7, #7]
                                                            /* Not configured */
}
     d92:	f107 070c 	add.w	r7, r7, #12
     d96:	46bd      	mov	sp, r7
     d98:	bc80      	pop	{r7}
     d9a:	4770      	bx	lr

00000d9c <blpi2fei>:


static void blpi2fei(clockConfig_t cc)
{
     d9c:	b480      	push	{r7}
     d9e:	b083      	sub	sp, #12
     da0:	af00      	add	r7, sp, #0
     da2:	4603      	mov	r3, r0
     da4:	71fb      	strb	r3, [r7, #7]
                                                            /* Not configured */
}
     da6:	f107 070c 	add.w	r7, r7, #12
     daa:	46bd      	mov	sp, r7
     dac:	bc80      	pop	{r7}
     dae:	4770      	bx	lr

00000db0 <blpi2fee>:

static void blpi2fee(clockConfig_t cc)
{
     db0:	b480      	push	{r7}
     db2:	b083      	sub	sp, #12
     db4:	af00      	add	r7, sp, #0
     db6:	4603      	mov	r3, r0
     db8:	71fb      	strb	r3, [r7, #7]
                                                            /* Not configured */
}
     dba:	f107 070c 	add.w	r7, r7, #12
     dbe:	46bd      	mov	sp, r7
     dc0:	bc80      	pop	{r7}
     dc2:	4770      	bx	lr

00000dc4 <blpi2pee>:

static void blpi2pee(clockConfig_t cc)
{
     dc4:	b480      	push	{r7}
     dc6:	b083      	sub	sp, #12
     dc8:	af00      	add	r7, sp, #0
     dca:	4603      	mov	r3, r0
     dcc:	71fb      	strb	r3, [r7, #7]
                                                            /* Not configured */
}
     dce:	f107 070c 	add.w	r7, r7, #12
     dd2:	46bd      	mov	sp, r7
     dd4:	bc80      	pop	{r7}
     dd6:	4770      	bx	lr

00000dd8 <blpi2blpe>:

static void blpi2blpe(clockConfig_t cc)
{
     dd8:	b480      	push	{r7}
     dda:	b083      	sub	sp, #12
     ddc:	af00      	add	r7, sp, #0
     dde:	4603      	mov	r3, r0
     de0:	71fb      	strb	r3, [r7, #7]
                                                            /* Not configured */
}
     de2:	f107 070c 	add.w	r7, r7, #12
     de6:	46bd      	mov	sp, r7
     de8:	bc80      	pop	{r7}
     dea:	4770      	bx	lr

00000dec <blpe2fei>:


static void blpe2fei(clockConfig_t cc)
{
     dec:	b480      	push	{r7}
     dee:	b083      	sub	sp, #12
     df0:	af00      	add	r7, sp, #0
     df2:	4603      	mov	r3, r0
     df4:	71fb      	strb	r3, [r7, #7]
                                                            /* Not configured */
}
     df6:	f107 070c 	add.w	r7, r7, #12
     dfa:	46bd      	mov	sp, r7
     dfc:	bc80      	pop	{r7}
     dfe:	4770      	bx	lr

00000e00 <blpe2fee>:

static void blpe2fee(clockConfig_t cc)
{
     e00:	b480      	push	{r7}
     e02:	b083      	sub	sp, #12
     e04:	af00      	add	r7, sp, #0
     e06:	4603      	mov	r3, r0
     e08:	71fb      	strb	r3, [r7, #7]
                                                            /* Not configured */
}
     e0a:	f107 070c 	add.w	r7, r7, #12
     e0e:	46bd      	mov	sp, r7
     e10:	bc80      	pop	{r7}
     e12:	4770      	bx	lr

00000e14 <blpe2pee>:

static void blpe2pee(clockConfig_t cc)
{
     e14:	b480      	push	{r7}
     e16:	b083      	sub	sp, #12
     e18:	af00      	add	r7, sp, #0
     e1a:	4603      	mov	r3, r0
     e1c:	71fb      	strb	r3, [r7, #7]
                                                            /* Not configured */
}
     e1e:	f107 070c 	add.w	r7, r7, #12
     e22:	46bd      	mov	sp, r7
     e24:	bc80      	pop	{r7}
     e26:	4770      	bx	lr

00000e28 <blpe2blpi>:

static void blpe2blpi(clockConfig_t cc)
{
     e28:	b480      	push	{r7}
     e2a:	b083      	sub	sp, #12
     e2c:	af00      	add	r7, sp, #0
     e2e:	4603      	mov	r3, r0
     e30:	71fb      	strb	r3, [r7, #7]
                                                            /* Not configured */
}
     e32:	f107 070c 	add.w	r7, r7, #12
     e36:	46bd      	mov	sp, r7
     e38:	bc80      	pop	{r7}
     e3a:	4770      	bx	lr

00000e3c <clockSetDividers>:
* system, bus, flexbus, and flash clock frequencies.
*
*******************************************************************************/
void clockSetDividers(divider_t systemDiv, divider_t busDiv,
                                       divider_t flexBusDiv, divider_t flashDiv)
{
     e3c:	b580      	push	{r7, lr}
     e3e:	b084      	sub	sp, #16
     e40:	af00      	add	r7, sp, #0
     e42:	71f8      	strb	r0, [r7, #7]
     e44:	71b9      	strb	r1, [r7, #6]
     e46:	717a      	strb	r2, [r7, #5]
     e48:	713b      	strb	r3, [r7, #4]
    int mcgClock = clockFreq.mcgClockFreq;
     e4a:	f240 4324 	movw	r3, #1060	; 0x424
     e4e:	f2c2 0300 	movt	r3, #8192	; 0x2000
     e52:	681b      	ldr	r3, [r3, #0]
     e54:	60fb      	str	r3, [r7, #12]

    /*
     * The asserts are raised when the internal clock requirements (sec. 5.5)
     * are not met.
     */
    assert( (mcgClock / (systemDiv +1)) <= MAX_SYSTEM_FREQ);
     e56:	79fb      	ldrb	r3, [r7, #7]
     e58:	f103 0301 	add.w	r3, r3, #1
     e5c:	68fa      	ldr	r2, [r7, #12]
     e5e:	fb92 f2f3 	sdiv	r2, r2, r3
     e62:	f44f 4361 	mov.w	r3, #57600	; 0xe100
     e66:	f2c0 53f5 	movt	r3, #1525	; 0x5f5
     e6a:	429a      	cmp	r2, r3
     e6c:	dd07      	ble.n	e7e <clockSetDividers+0x42>
     e6e:	f642 403c 	movw	r0, #11324	; 0x2c3c
     e72:	f2c0 0000 	movt	r0, #0
     e76:	f240 1179 	movw	r1, #377	; 0x179
     e7a:	f7ff fb71 	bl	560 <assert_>

    assert( (mcgClock / (busDiv    +1)) <= MAX_BUS_FREQ &&
     e7e:	79bb      	ldrb	r3, [r7, #6]
     e80:	f103 0301 	add.w	r3, r3, #1
     e84:	68fa      	ldr	r2, [r7, #12]
     e86:	fb92 f2f3 	sdiv	r2, r2, r3
     e8a:	f24f 0380 	movw	r3, #61568	; 0xf080
     e8e:	f2c0 23fa 	movt	r3, #762	; 0x2fa
     e92:	429a      	cmp	r2, r3
     e94:	dc0d      	bgt.n	eb2 <clockSetDividers+0x76>
     e96:	79bb      	ldrb	r3, [r7, #6]
     e98:	f103 0301 	add.w	r3, r3, #1
     e9c:	68fa      	ldr	r2, [r7, #12]
     e9e:	fb92 f2f3 	sdiv	r2, r2, r3
     ea2:	79fb      	ldrb	r3, [r7, #7]
     ea4:	f103 0301 	add.w	r3, r3, #1
     ea8:	68f9      	ldr	r1, [r7, #12]
     eaa:	fb91 f3f3 	sdiv	r3, r1, r3
     eae:	429a      	cmp	r2, r3
     eb0:	dd07      	ble.n	ec2 <clockSetDividers+0x86>
     eb2:	f642 403c 	movw	r0, #11324	; 0x2c3c
     eb6:	f2c0 0000 	movt	r0, #0
     eba:	f44f 71be 	mov.w	r1, #380	; 0x17c
     ebe:	f7ff fb4f 	bl	560 <assert_>
            (mcgClock / (busDiv    +1)) <= (mcgClock / (systemDiv+1)));

    assert( (mcgClock / (flashDiv  +1)) <= MAX_FLASH_FREQ &&
     ec2:	793b      	ldrb	r3, [r7, #4]
     ec4:	f103 0301 	add.w	r3, r3, #1
     ec8:	68fa      	ldr	r2, [r7, #12]
     eca:	fb92 f2f3 	sdiv	r2, r2, r3
     ece:	f647 0340 	movw	r3, #30784	; 0x7840
     ed2:	f2c0 137d 	movt	r3, #381	; 0x17d
     ed6:	429a      	cmp	r2, r3
     ed8:	dc0d      	bgt.n	ef6 <clockSetDividers+0xba>
     eda:	793b      	ldrb	r3, [r7, #4]
     edc:	f103 0301 	add.w	r3, r3, #1
     ee0:	68fa      	ldr	r2, [r7, #12]
     ee2:	fb92 f2f3 	sdiv	r2, r2, r3
     ee6:	79bb      	ldrb	r3, [r7, #6]
     ee8:	f103 0301 	add.w	r3, r3, #1
     eec:	68f9      	ldr	r1, [r7, #12]
     eee:	fb91 f3f3 	sdiv	r3, r1, r3
     ef2:	429a      	cmp	r2, r3
     ef4:	dd07      	ble.n	f06 <clockSetDividers+0xca>
     ef6:	f642 403c 	movw	r0, #11324	; 0x2c3c
     efa:	f2c0 0000 	movt	r0, #0
     efe:	f240 117f 	movw	r1, #383	; 0x17f
     f02:	f7ff fb2d 	bl	560 <assert_>
            (mcgClock / (flashDiv  +1)) <= (mcgClock / (busDiv+1)));

    assert( (mcgClock / (flexBusDiv+1)) <= (mcgClock / (busDiv+1)));
     f06:	797b      	ldrb	r3, [r7, #5]
     f08:	f103 0301 	add.w	r3, r3, #1
     f0c:	68fa      	ldr	r2, [r7, #12]
     f0e:	fb92 f2f3 	sdiv	r2, r2, r3
     f12:	79bb      	ldrb	r3, [r7, #6]
     f14:	f103 0301 	add.w	r3, r3, #1
     f18:	68f9      	ldr	r1, [r7, #12]
     f1a:	fb91 f3f3 	sdiv	r3, r1, r3
     f1e:	429a      	cmp	r2, r3
     f20:	dd07      	ble.n	f32 <clockSetDividers+0xf6>
     f22:	f642 403c 	movw	r0, #11324	; 0x2c3c
     f26:	f2c0 0000 	movt	r0, #0
     f2a:	f240 1181 	movw	r1, #385	; 0x181
     f2e:	f7ff fb17 	bl	560 <assert_>

    /* Save the new dividers */
    clockFreq.systemDiv  = systemDiv;
     f32:	f240 4324 	movw	r3, #1060	; 0x424
     f36:	f2c2 0300 	movt	r3, #8192	; 0x2000
     f3a:	79fa      	ldrb	r2, [r7, #7]
     f3c:	711a      	strb	r2, [r3, #4]
    clockFreq.busDiv     = busDiv;
     f3e:	f240 4324 	movw	r3, #1060	; 0x424
     f42:	f2c2 0300 	movt	r3, #8192	; 0x2000
     f46:	79ba      	ldrb	r2, [r7, #6]
     f48:	715a      	strb	r2, [r3, #5]
    clockFreq.flexBusDiv = flexBusDiv;
     f4a:	f240 4324 	movw	r3, #1060	; 0x424
     f4e:	f2c2 0300 	movt	r3, #8192	; 0x2000
     f52:	797a      	ldrb	r2, [r7, #5]
     f54:	719a      	strb	r2, [r3, #6]
    clockFreq.flashDiv   = flashDiv;
     f56:	f240 4324 	movw	r3, #1060	; 0x424
     f5a:	f2c2 0300 	movt	r3, #8192	; 0x2000
     f5e:	793a      	ldrb	r2, [r7, #4]
     f60:	71da      	strb	r2, [r3, #7]

    /* Set the SIM clock dividers */
    SIM_CLKDIV1 = (systemDiv << 28)  |
     f62:	f248 0344 	movw	r3, #32836	; 0x8044
     f66:	f2c4 0304 	movt	r3, #16388	; 0x4004
     f6a:	79fa      	ldrb	r2, [r7, #7]
     f6c:	ea4f 7102 	mov.w	r1, r2, lsl #28
                  (busDiv << 24)     |
     f70:	79ba      	ldrb	r2, [r7, #6]
     f72:	ea4f 6202 	mov.w	r2, r2, lsl #24
    clockFreq.busDiv     = busDiv;
    clockFreq.flexBusDiv = flexBusDiv;
    clockFreq.flashDiv   = flashDiv;

    /* Set the SIM clock dividers */
    SIM_CLKDIV1 = (systemDiv << 28)  |
     f76:	4311      	orrs	r1, r2
                  (busDiv << 24)     |
                  (flexBusDiv << 20) |
     f78:	797a      	ldrb	r2, [r7, #5]
     f7a:	ea4f 5202 	mov.w	r2, r2, lsl #20
    clockFreq.flexBusDiv = flexBusDiv;
    clockFreq.flashDiv   = flashDiv;

    /* Set the SIM clock dividers */
    SIM_CLKDIV1 = (systemDiv << 28)  |
                  (busDiv << 24)     |
     f7e:	4311      	orrs	r1, r2
                  (flexBusDiv << 20) |
                  (flashDiv << 16);
     f80:	793a      	ldrb	r2, [r7, #4]
     f82:	ea4f 4202 	mov.w	r2, r2, lsl #16
    clockFreq.flashDiv   = flashDiv;

    /* Set the SIM clock dividers */
    SIM_CLKDIV1 = (systemDiv << 28)  |
                  (busDiv << 24)     |
                  (flexBusDiv << 20) |
     f86:	430a      	orrs	r2, r1
    clockFreq.busDiv     = busDiv;
    clockFreq.flexBusDiv = flexBusDiv;
    clockFreq.flashDiv   = flashDiv;

    /* Set the SIM clock dividers */
    SIM_CLKDIV1 = (systemDiv << 28)  |
     f88:	601a      	str	r2, [r3, #0]
                  (busDiv << 24)     |
                  (flexBusDiv << 20) |
                  (flashDiv << 16);
}
     f8a:	f107 0710 	add.w	r7, r7, #16
     f8e:	46bd      	mov	sp, r7
     f90:	bd80      	pop	{r7, pc}
     f92:	bf00      	nop

00000f94 <clockGetFreq>:
*
* Grab the clock frequency for a particular clock source in Hz.
*
*******************************************************************************/
uint32_t clockGetFreq(clockSource_t cs)
{
     f94:	b580      	push	{r7, lr}
     f96:	b084      	sub	sp, #16
     f98:	af00      	add	r7, sp, #0
     f9a:	4603      	mov	r3, r0
     f9c:	71fb      	strb	r3, [r7, #7]
    uint32_t clock;

    switch (cs) {
     f9e:	79fb      	ldrb	r3, [r7, #7]
     fa0:	f1a3 0302 	sub.w	r3, r3, #2
     fa4:	2b03      	cmp	r3, #3
     fa6:	d84b      	bhi.n	1040 <clockGetFreq+0xac>
     fa8:	a201      	add	r2, pc, #4	; (adr r2, fb0 <clockGetFreq+0x1c>)
     faa:	f852 f023 	ldr.w	pc, [r2, r3, lsl #2]
     fae:	bf00      	nop
     fb0:	00000fc1 	andeq	r0, r0, r1, asr #31
     fb4:	00000fe1 	andeq	r0, r0, r1, ror #31
     fb8:	00001001 	andeq	r1, r0, r1
     fbc:	00001021 	andeq	r1, r0, r1, lsr #32
    case CLOCK_SYSTEM:
        clock = clockFreq.mcgClockFreq / (clockFreq.systemDiv + 1);
     fc0:	f240 4324 	movw	r3, #1060	; 0x424
     fc4:	f2c2 0300 	movt	r3, #8192	; 0x2000
     fc8:	681a      	ldr	r2, [r3, #0]
     fca:	f240 4324 	movw	r3, #1060	; 0x424
     fce:	f2c2 0300 	movt	r3, #8192	; 0x2000
     fd2:	791b      	ldrb	r3, [r3, #4]
     fd4:	f103 0301 	add.w	r3, r3, #1
     fd8:	fbb2 f3f3 	udiv	r3, r2, r3
     fdc:	60fb      	str	r3, [r7, #12]
        break;
     fde:	e037      	b.n	1050 <clockGetFreq+0xbc>
    case CLOCK_BUS:
        clock = clockFreq.mcgClockFreq / (clockFreq.busDiv + 1);
     fe0:	f240 4324 	movw	r3, #1060	; 0x424
     fe4:	f2c2 0300 	movt	r3, #8192	; 0x2000
     fe8:	681a      	ldr	r2, [r3, #0]
     fea:	f240 4324 	movw	r3, #1060	; 0x424
     fee:	f2c2 0300 	movt	r3, #8192	; 0x2000
     ff2:	795b      	ldrb	r3, [r3, #5]
     ff4:	f103 0301 	add.w	r3, r3, #1
     ff8:	fbb2 f3f3 	udiv	r3, r2, r3
     ffc:	60fb      	str	r3, [r7, #12]
        break;
     ffe:	e027      	b.n	1050 <clockGetFreq+0xbc>
    case CLOCK_FLEXBUS:
        clock = clockFreq.mcgClockFreq / (clockFreq.flexBusDiv + 1);
    1000:	f240 4324 	movw	r3, #1060	; 0x424
    1004:	f2c2 0300 	movt	r3, #8192	; 0x2000
    1008:	681a      	ldr	r2, [r3, #0]
    100a:	f240 4324 	movw	r3, #1060	; 0x424
    100e:	f2c2 0300 	movt	r3, #8192	; 0x2000
    1012:	799b      	ldrb	r3, [r3, #6]
    1014:	f103 0301 	add.w	r3, r3, #1
    1018:	fbb2 f3f3 	udiv	r3, r2, r3
    101c:	60fb      	str	r3, [r7, #12]
        break;
    101e:	e017      	b.n	1050 <clockGetFreq+0xbc>
    case CLOCK_FLASH:
        clock = clockFreq.mcgClockFreq / (clockFreq.flashDiv + 1);
    1020:	f240 4324 	movw	r3, #1060	; 0x424
    1024:	f2c2 0300 	movt	r3, #8192	; 0x2000
    1028:	681a      	ldr	r2, [r3, #0]
    102a:	f240 4324 	movw	r3, #1060	; 0x424
    102e:	f2c2 0300 	movt	r3, #8192	; 0x2000
    1032:	79db      	ldrb	r3, [r3, #7]
    1034:	f103 0301 	add.w	r3, r3, #1
    1038:	fbb2 f3f3 	udiv	r3, r2, r3
    103c:	60fb      	str	r3, [r7, #12]
        break;
    103e:	e007      	b.n	1050 <clockGetFreq+0xbc>
    default:
        assert(0);
    1040:	f642 403c 	movw	r0, #11324	; 0x2c3c
    1044:	f2c0 0000 	movt	r0, #0
    1048:	f240 11a9 	movw	r1, #425	; 0x1a9
    104c:	f7ff fa88 	bl	560 <assert_>
    }

    return clock;
    1050:	68fb      	ldr	r3, [r7, #12]
}
    1052:	4618      	mov	r0, r3
    1054:	f107 0710 	add.w	r7, r7, #16
    1058:	46bd      	mov	sp, r7
    105a:	bd80      	pop	{r7, pc}

0000105c <clockConfigMcgOut>:
*        ____ STOP ____ (Entered when MCU enters stop mode, and returns to
*                        previous active mode when exits stop mode )
*
*******************************************************************************/
void clockConfigMcgOut(clockConfig_t clockConfig)
{
    105c:	b580      	push	{r7, lr}
    105e:	b082      	sub	sp, #8
    1060:	af00      	add	r7, sp, #0
    1062:	4603      	mov	r3, r0
    1064:	71fb      	strb	r3, [r7, #7]
        {  pee2fei,  pee2fee,     NULL,  pee2blpi,  pee2blpe, },
        { blpi2fei, blpi2fee, blpi2pee,      NULL, blpi2blpe, },
        { blpe2fei, blpe2fee, blpe2pee, blpe2blpi,      NULL, },
    };

    assert(clockConfig < MAX_MCG_CLOCK_OPTIONS);
    1066:	79fb      	ldrb	r3, [r7, #7]
    1068:	2b02      	cmp	r3, #2
    106a:	d907      	bls.n	107c <clockConfigMcgOut+0x20>
    106c:	f642 403c 	movw	r0, #11324	; 0x2c3c
    1070:	f2c0 0000 	movt	r0, #0
    1074:	f44f 71ec 	mov.w	r1, #472	; 0x1d8
    1078:	f7ff fa72 	bl	560 <assert_>

    mcgState.nextMode = clockConfigParam[clockConfig].clockMode;
    107c:	79fa      	ldrb	r2, [r7, #7]
    107e:	f240 430c 	movw	r3, #1036	; 0x40c
    1082:	f2c2 0300 	movt	r3, #8192	; 0x2000
    1086:	f813 2032 	ldrb.w	r2, [r3, r2, lsl #3]
    108a:	f240 53e8 	movw	r3, #1512	; 0x5e8
    108e:	f2c2 0300 	movt	r3, #8192	; 0x2000
    1092:	705a      	strb	r2, [r3, #1]

    jumpTable[mcgState.currentMode][mcgState.nextMode](clockConfig);
    1094:	f240 53e8 	movw	r3, #1512	; 0x5e8
    1098:	f2c2 0300 	movt	r3, #8192	; 0x2000
    109c:	781b      	ldrb	r3, [r3, #0]
    109e:	4619      	mov	r1, r3
    10a0:	f240 53e8 	movw	r3, #1512	; 0x5e8
    10a4:	f2c2 0300 	movt	r3, #8192	; 0x2000
    10a8:	785b      	ldrb	r3, [r3, #1]
    10aa:	4618      	mov	r0, r3
    10ac:	f642 425c 	movw	r2, #11356	; 0x2c5c
    10b0:	f2c0 0200 	movt	r2, #0
    10b4:	460b      	mov	r3, r1
    10b6:	ea4f 0383 	mov.w	r3, r3, lsl #2
    10ba:	185b      	adds	r3, r3, r1
    10bc:	181b      	adds	r3, r3, r0
    10be:	f852 3023 	ldr.w	r3, [r2, r3, lsl #2]
    10c2:	79fa      	ldrb	r2, [r7, #7]
    10c4:	4610      	mov	r0, r2
    10c6:	4798      	blx	r3

    /* Store the new clock frequency for clockGetFreq() */
    clockFreq.mcgClockFreq = clockConfigParam[clockConfig].clockHz;
    10c8:	79fb      	ldrb	r3, [r7, #7]
    10ca:	f240 420c 	movw	r2, #1036	; 0x40c
    10ce:	f2c2 0200 	movt	r2, #8192	; 0x2000
    10d2:	ea4f 03c3 	mov.w	r3, r3, lsl #3
    10d6:	18d3      	adds	r3, r2, r3
    10d8:	685a      	ldr	r2, [r3, #4]
    10da:	f240 4324 	movw	r3, #1060	; 0x424
    10de:	f2c2 0300 	movt	r3, #8192	; 0x2000
    10e2:	601a      	str	r2, [r3, #0]
}
    10e4:	f107 0708 	add.w	r7, r7, #8
    10e8:	46bd      	mov	sp, r7
    10ea:	bd80      	pop	{r7, pc}

000010ec <clockConfigMcgIr>:

/*******************************************************************************
* clockConfigMcgIr
*******************************************************************************/
void clockConfigMcgIr()
{
    10ec:	b480      	push	{r7}
    10ee:	af00      	add	r7, sp, #0
                                                            /* Not configured */
}
    10f0:	46bd      	mov	sp, r7
    10f2:	bc80      	pop	{r7}
    10f4:	4770      	bx	lr
    10f6:	bf00      	nop

000010f8 <clockConfigMcgFf>:

/*******************************************************************************
* clockConfigMcgFf
*******************************************************************************/
void clockConfigMcgFf()
{
    10f8:	b480      	push	{r7}
    10fa:	af00      	add	r7, sp, #0
                                                            /* Not configured */
}
    10fc:	46bd      	mov	sp, r7
    10fe:	bc80      	pop	{r7}
    1100:	4770      	bx	lr
    1102:	bf00      	nop

00001104 <clockConfigMcgFll>:

/*******************************************************************************
* clockConfigMcgFll
*******************************************************************************/
void clockConfigMcgFll()
{
    1104:	b480      	push	{r7}
    1106:	af00      	add	r7, sp, #0
                                                            /* Not configured */
}
    1108:	46bd      	mov	sp, r7
    110a:	bc80      	pop	{r7}
    110c:	4770      	bx	lr
    110e:	bf00      	nop

00001110 <clockConfigMcgPll>:

/*******************************************************************************
* clockConfigMcgPll
*******************************************************************************/
void clockConfigMcgPll()
{
    1110:	b480      	push	{r7}
    1112:	af00      	add	r7, sp, #0
                                                            /* Not configured */
}
    1114:	46bd      	mov	sp, r7
    1116:	bc80      	pop	{r7}
    1118:	4770      	bx	lr
    111a:	bf00      	nop

0000111c <clockConfigOsc>:

/*******************************************************************************
* clockConfigOsc
*******************************************************************************/
void clockConfigOsc()
{
    111c:	b480      	push	{r7}
    111e:	af00      	add	r7, sp, #0
                                                            /* Not configured */
}
    1120:	46bd      	mov	sp, r7
    1122:	bc80      	pop	{r7}
    1124:	4770      	bx	lr
    1126:	bf00      	nop

00001128 <clockConfigOsc32k>:

/*******************************************************************************
* clockConfigOsc32k
*******************************************************************************/
void clockConfigOsc32k()
{
    1128:	b480      	push	{r7}
    112a:	af00      	add	r7, sp, #0
                                                            /* Not configured */
}
    112c:	46bd      	mov	sp, r7
    112e:	bc80      	pop	{r7}
    1130:	4770      	bx	lr
    1132:	bf00      	nop

00001134 <clockConfigEr32k>:

/*******************************************************************************
* clockConfigEr32k
*******************************************************************************/
void clockConfigEr32k()
{
    1134:	b480      	push	{r7}
    1136:	af00      	add	r7, sp, #0
                                                            /* Not configured */
}
    1138:	46bd      	mov	sp, r7
    113a:	bc80      	pop	{r7}
    113c:	4770      	bx	lr
    113e:	bf00      	nop

00001140 <clockConfigRtc>:

/*******************************************************************************
* clockConfigRtc
*******************************************************************************/
void clockConfigRtc()
{
    1140:	b480      	push	{r7}
    1142:	af00      	add	r7, sp, #0
                                                            /* Not configured */
}
    1144:	46bd      	mov	sp, r7
    1146:	bc80      	pop	{r7}
    1148:	4770      	bx	lr
    114a:	bf00      	nop

0000114c <clockConfigLpo>:

/*******************************************************************************
* clockConfigLpo
*******************************************************************************/
void clockConfigLpo()
{
    114c:	b480      	push	{r7}
    114e:	af00      	add	r7, sp, #0
                                                            /* Not configured */
}
    1150:	46bd      	mov	sp, r7
    1152:	bc80      	pop	{r7}
    1154:	4770      	bx	lr
    1156:	bf00      	nop

00001158 <watchDogUnlock>:
*
* RETURNS: Nothing
*
*******************************************************************************/
void watchDogUnlock()
{
    1158:	b480      	push	{r7}
    115a:	af00      	add	r7, sp, #0
        " :
        /* No output */ :
        /* No input  */ :
        "r0", "r1" ); /* Specify which registers we destroy */
#else
    wdPtr->unlock = WDOG_UNLOCK_KEY_1;
    115c:	f240 432c 	movw	r3, #1068	; 0x42c
    1160:	f2c2 0300 	movt	r3, #8192	; 0x2000
    1164:	681b      	ldr	r3, [r3, #0]
    1166:	f24c 5220 	movw	r2, #50464	; 0xc520
    116a:	81da      	strh	r2, [r3, #14]
    wdPtr->unlock = WDOG_UNLOCK_KEY_2;
    116c:	f240 432c 	movw	r3, #1068	; 0x42c
    1170:	f2c2 0300 	movt	r3, #8192	; 0x2000
    1174:	681b      	ldr	r3, [r3, #0]
    1176:	f64d 1228 	movw	r2, #55592	; 0xd928
    117a:	81da      	strh	r2, [r3, #14]
#endif
    /* NOTE: Need to wait one clock cycle before updating any registers */
}
    117c:	46bd      	mov	sp, r7
    117e:	bc80      	pop	{r7}
    1180:	4770      	bx	lr
    1182:	bf00      	nop

00001184 <watchDogInit>:

/*******************************************************************************
* watchDogInit
*******************************************************************************/
void watchDogInit(const watchDogConfig_t *wdCfgPtr)
{
    1184:	b580      	push	{r7, lr}
    1186:	b082      	sub	sp, #8
    1188:	af00      	add	r7, sp, #0
    118a:	6078      	str	r0, [r7, #4]
    watchDogUnlock();
    118c:	f7ff ffe4 	bl	1158 <watchDogUnlock>
        " :
        /* No output */ :
        /* No input  */ :
        "r0", "r1", "r2" ); /* Specify which registers we destroy */
#else
    assert(wdCfgPtr->window < wdCfgPtr->timeout);
    1190:	687b      	ldr	r3, [r7, #4]
    1192:	689a      	ldr	r2, [r3, #8]
    1194:	687b      	ldr	r3, [r7, #4]
    1196:	685b      	ldr	r3, [r3, #4]
    1198:	429a      	cmp	r2, r3
    119a:	d307      	bcc.n	11ac <watchDogInit+0x28>
    119c:	f642 40c0 	movw	r0, #11456	; 0x2cc0
    11a0:	f2c0 0000 	movt	r0, #0
    11a4:	f04f 0183 	mov.w	r1, #131	; 0x83
    11a8:	f7ff f9da 	bl	560 <assert_>

    wdPtr->toValL  = wdCfgPtr->timeout;
    11ac:	f240 432c 	movw	r3, #1068	; 0x42c
    11b0:	f2c2 0300 	movt	r3, #8192	; 0x2000
    11b4:	681b      	ldr	r3, [r3, #0]
    11b6:	687a      	ldr	r2, [r7, #4]
    11b8:	6852      	ldr	r2, [r2, #4]
    11ba:	b292      	uxth	r2, r2
    11bc:	80da      	strh	r2, [r3, #6]
    wdPtr->toValH  = wdCfgPtr->timeout >> 16;
    11be:	f240 432c 	movw	r3, #1068	; 0x42c
    11c2:	f2c2 0300 	movt	r3, #8192	; 0x2000
    11c6:	681b      	ldr	r3, [r3, #0]
    11c8:	687a      	ldr	r2, [r7, #4]
    11ca:	6852      	ldr	r2, [r2, #4]
    11cc:	ea4f 4212 	mov.w	r2, r2, lsr #16
    11d0:	b292      	uxth	r2, r2
    11d2:	809a      	strh	r2, [r3, #4]
    wdPtr->stCtrlH = wdCfgPtr->stCtrlFlags;
    11d4:	f240 432c 	movw	r3, #1068	; 0x42c
    11d8:	f2c2 0300 	movt	r3, #8192	; 0x2000
    11dc:	681b      	ldr	r3, [r3, #0]
    11de:	687a      	ldr	r2, [r7, #4]
    11e0:	8812      	ldrh	r2, [r2, #0]
    11e2:	801a      	strh	r2, [r3, #0]
    wdPtr->presc   = wdCfgPtr->prescaler;
    11e4:	f240 432c 	movw	r3, #1068	; 0x42c
    11e8:	f2c2 0300 	movt	r3, #8192	; 0x2000
    11ec:	681b      	ldr	r3, [r3, #0]
    11ee:	687a      	ldr	r2, [r7, #4]
    11f0:	8852      	ldrh	r2, [r2, #2]
    11f2:	82da      	strh	r2, [r3, #22]
    wdPtr->winL    = wdCfgPtr->window;
    11f4:	f240 432c 	movw	r3, #1068	; 0x42c
    11f8:	f2c2 0300 	movt	r3, #8192	; 0x2000
    11fc:	681b      	ldr	r3, [r3, #0]
    11fe:	687a      	ldr	r2, [r7, #4]
    1200:	6892      	ldr	r2, [r2, #8]
    1202:	b292      	uxth	r2, r2
    1204:	815a      	strh	r2, [r3, #10]
    wdPtr->winH    = wdCfgPtr->window >> 16;
    1206:	f240 432c 	movw	r3, #1068	; 0x42c
    120a:	f2c2 0300 	movt	r3, #8192	; 0x2000
    120e:	681b      	ldr	r3, [r3, #0]
    1210:	687a      	ldr	r2, [r7, #4]
    1212:	6892      	ldr	r2, [r2, #8]
    1214:	ea4f 4212 	mov.w	r2, r2, lsr #16
    1218:	b292      	uxth	r2, r2
    121a:	811a      	strh	r2, [r3, #8]
    }
    if (wdCfgPtr->stCtrlFlags & WDOG_TEST) {
        /* TODO: If anyone cares let me know */
    }
#endif
}
    121c:	f107 0708 	add.w	r7, r7, #8
    1220:	46bd      	mov	sp, r7
    1222:	bd80      	pop	{r7, pc}

00001224 <interruptDisable>:

/* RFI: Could probably move these elsewhere for general consumption */
static void interruptDisable()
{
    1224:	b480      	push	{r7}
    1226:	af00      	add	r7, sp, #0
    asm volatile("\n\
    1228:	b672      	cpsid	i
        cpsid i\n\
        " :
        /* No output */ :
        /* No input  */ :
        ); /* Specify which registers we destroy */
}
    122a:	46bd      	mov	sp, r7
    122c:	bc80      	pop	{r7}
    122e:	4770      	bx	lr

00001230 <interruptEnable>:
static void interruptEnable()
{
    1230:	b480      	push	{r7}
    1232:	af00      	add	r7, sp, #0
    asm volatile("\n\
    1234:	b662      	cpsie	i
        cpsie i\n\
        " :
        /* No output */ :
        /* No input  */ :
        ); /* Specify which registers we destroy */
}
    1236:	46bd      	mov	sp, r7
    1238:	bc80      	pop	{r7}
    123a:	4770      	bx	lr

0000123c <watchDogKick>:

/*******************************************************************************
* watchDogKick
*******************************************************************************/
void watchDogKick()
{
    123c:	b580      	push	{r7, lr}
    123e:	af00      	add	r7, sp, #0
        " :
        /* No output */ :
        /* No input  */ :
        "r0", "r1" ); /* Specify which registers we destroy */
#else
    interruptDisable();
    1240:	f7ff fff0 	bl	1224 <interruptDisable>
    wdPtr->refresh = WDOG_REFRESH_KEY_1;
    1244:	f240 432c 	movw	r3, #1068	; 0x42c
    1248:	f2c2 0300 	movt	r3, #8192	; 0x2000
    124c:	681b      	ldr	r3, [r3, #0]
    124e:	f24a 6202 	movw	r2, #42498	; 0xa602
    1252:	819a      	strh	r2, [r3, #12]
    wdPtr->refresh = WDOG_REFRESH_KEY_2;
    1254:	f240 432c 	movw	r3, #1068	; 0x42c
    1258:	f2c2 0300 	movt	r3, #8192	; 0x2000
    125c:	681b      	ldr	r3, [r3, #0]
    125e:	f24b 4280 	movw	r2, #46208	; 0xb480
    1262:	819a      	strh	r2, [r3, #12]
    interruptEnable();
    1264:	f7ff ffe4 	bl	1230 <interruptEnable>
#endif
}
    1268:	bd80      	pop	{r7, pc}
    126a:	bf00      	nop

0000126c <watchDogDisable>:

/*******************************************************************************
* watchDogDisable
*******************************************************************************/
void watchDogDisable()
{
    126c:	b580      	push	{r7, lr}
    126e:	af00      	add	r7, sp, #0
    watchDogUnlock();
    1270:	f7ff ff72 	bl	1158 <watchDogUnlock>
        " :
        /* No output */ :
        /* No input  */ :
        "r0", "r1" ); /* Specify which registers we destroy */
#else
    wdPtr->stCtrlH = WDOG_STNDBYEN | WDOG_WAITEN | WDOG_STOPEN
    1274:	f240 432c 	movw	r3, #1068	; 0x42c
    1278:	f2c2 0300 	movt	r3, #8192	; 0x2000
    127c:	681b      	ldr	r3, [r3, #0]
    127e:	f44f 72e8 	mov.w	r2, #464	; 0x1d0
    1282:	801a      	strh	r2, [r3, #0]
                   | WDOG_ALLOWUPDATE;
#endif
}
    1284:	bd80      	pop	{r7, pc}
    1286:	bf00      	nop
	...

00001290 <_idle_thread>:
 *          that this thread is executed only if there are no other ready
 *          threads in the system.
 *
 * @param[in] p the thread parameter, unused in this scenario
 */
void _idle_thread(void *p) {
    1290:	b082      	sub	sp, #8
    1292:	9001      	str	r0, [sp, #4]

  (void)p;
  chRegSetThreadName("idle");
    1294:	f240 7308 	movw	r3, #1800	; 0x708
    1298:	f2c2 0300 	movt	r3, #8192	; 0x2000
    129c:	699a      	ldr	r2, [r3, #24]
    129e:	f642 43e0 	movw	r3, #11488	; 0x2ce0
    12a2:	f2c0 0300 	movt	r3, #0
    12a6:	6193      	str	r3, [r2, #24]
  while (TRUE) {
    port_wait_for_interrupt();
    IDLE_LOOP_HOOK();
  }
    12a8:	e7fe      	b.n	12a8 <_idle_thread+0x18>
    12aa:	bf00      	nop
    12ac:	f3af 8000 	nop.w

000012b0 <chSysInit>:
 * @note    This function has special, architecture-dependent, requirements,
 *          see the notes into the various port reference manuals.
 *
 * @special
 */
void chSysInit(void) {
    12b0:	b500      	push	{lr}
    12b2:	b083      	sub	sp, #12
  static Thread mainthread;
#if CH_DBG_ENABLE_STACK_CHECK
  extern stkalign_t __main_thread_stack_base__;
#endif

  port_init();
    12b4:	f001 f93c 	bl	2530 <_port_init>
  _scheduler_init();
    12b8:	f000 f9aa 	bl	1610 <_scheduler_init>
  _vt_init();
    12bc:	f000 f8b0 	bl	1420 <_vt_init>
#if CH_USE_MEMCORE
  _core_init();
    12c0:	f000 fe66 	bl	1f90 <_core_init>
#endif
#if CH_USE_HEAP
  _heap_init();
    12c4:	f000 fee4 	bl	2090 <_heap_init>
#if CH_DBG_ENABLE_TRACE
  _trace_init();
#endif

  /* Now this instructions flow becomes the main thread.*/
  setcurrp(_thread_init(&mainthread, NORMALPRIO));
    12c8:	f240 60b0 	movw	r0, #1712	; 0x6b0
    12cc:	f2c2 0000 	movt	r0, #8192	; 0x2000
    12d0:	f04f 0140 	mov.w	r1, #64	; 0x40
    12d4:	f000 fba4 	bl	1a20 <_thread_init>
    12d8:	4602      	mov	r2, r0
    12da:	f240 7308 	movw	r3, #1800	; 0x708
    12de:	f2c2 0300 	movt	r3, #8192	; 0x2000
    12e2:	619a      	str	r2, [r3, #24]
  currp->p_state = THD_STATE_CURRENT;
    12e4:	f240 7308 	movw	r3, #1800	; 0x708
    12e8:	f2c2 0300 	movt	r3, #8192	; 0x2000
    12ec:	699b      	ldr	r3, [r3, #24]
    12ee:	f04f 0201 	mov.w	r2, #1
    12f2:	771a      	strb	r2, [r3, #28]
#if CH_DBG_ENABLE_STACK_CHECK
  /* This is a special case because the main thread Thread structure is not
     adjacent to its stack area.*/
  currp->p_stklimit = &__main_thread_stack_base__;
#endif
  chSysEnable();
    12f4:	f04f 0300 	mov.w	r3, #0
    12f8:	f383 8811 	msr	BASEPRI, r3
    12fc:	b662      	cpsie	i

  chRegSetThreadName("main");
    12fe:	f240 7308 	movw	r3, #1800	; 0x708
    1302:	f2c2 0300 	movt	r3, #8192	; 0x2000
    1306:	699a      	ldr	r2, [r3, #24]
    1308:	f642 43e8 	movw	r3, #11496	; 0x2ce8
    130c:	f2c0 0300 	movt	r3, #0
    1310:	6193      	str	r3, [r2, #24]

#if !CH_NO_IDLE_THREAD
  /* This thread has the lowest priority in the system, its role is just to
     serve interrupts in its context while keeping the lowest energy saving
     mode compatible with the system status.*/
  chThdCreateStatic(_idle_thread_wa, sizeof(_idle_thread_wa), IDLEPRIO,
    1312:	f241 2391 	movw	r3, #4753	; 0x1291
    1316:	f2c0 0300 	movt	r3, #0
    131a:	f04f 0200 	mov.w	r2, #0
    131e:	9200      	str	r2, [sp, #0]
    1320:	f240 50f0 	movw	r0, #1520	; 0x5f0
    1324:	f2c2 0000 	movt	r0, #8192	; 0x2000
    1328:	f04f 01c0 	mov.w	r1, #192	; 0xc0
    132c:	f04f 0201 	mov.w	r2, #1
    1330:	f000 fc06 	bl	1b40 <chThdCreateStatic>
                    (tfunc_t)_idle_thread, NULL);
#endif
}
    1334:	b003      	add	sp, #12
    1336:	bd00      	pop	{pc}
    1338:	f3af 8000 	nop.w
    133c:	f3af 8000 	nop.w

00001340 <chSysTimerHandlerI>:
 *          and, together with the @p CH_TIME_QUANTUM macro, the round robin
 *          interval.
 *
 * @iclass
 */
void chSysTimerHandlerI(void) {
    1340:	b500      	push	{lr}
    1342:	b083      	sub	sp, #12

  chDbgCheckClassI();

#if CH_TIME_QUANTUM > 0
  /* Running thread has not used up quantum yet? */
  if (currp->p_preempt > 0)
    1344:	f240 7308 	movw	r3, #1800	; 0x708
    1348:	f2c2 0300 	movt	r3, #8192	; 0x2000
    134c:	699b      	ldr	r3, [r3, #24]
    134e:	7fdb      	ldrb	r3, [r3, #31]
    1350:	2b00      	cmp	r3, #0
    1352:	d009      	beq.n	1368 <chSysTimerHandlerI+0x28>
    /* Decrement remaining quantum.*/
    currp->p_preempt--;
    1354:	f240 7308 	movw	r3, #1800	; 0x708
    1358:	f2c2 0300 	movt	r3, #8192	; 0x2000
    135c:	699b      	ldr	r3, [r3, #24]
    135e:	7fda      	ldrb	r2, [r3, #31]
    1360:	f102 32ff 	add.w	r2, r2, #4294967295
    1364:	b2d2      	uxtb	r2, r2
    1366:	77da      	strb	r2, [r3, #31]
#endif
#if CH_DBG_THREADS_PROFILING
  currp->p_time++;
    1368:	f240 7308 	movw	r3, #1800	; 0x708
    136c:	f2c2 0300 	movt	r3, #8192	; 0x2000
    1370:	699b      	ldr	r3, [r3, #24]
    1372:	6a1a      	ldr	r2, [r3, #32]
    1374:	f102 0201 	add.w	r2, r2, #1
    1378:	621a      	str	r2, [r3, #32]
#endif
  chVTDoTickI();
    137a:	f240 63f8 	movw	r3, #1784	; 0x6f8
    137e:	f2c2 0300 	movt	r3, #8192	; 0x2000
    1382:	68db      	ldr	r3, [r3, #12]
    1384:	f103 0201 	add.w	r2, r3, #1
    1388:	f240 63f8 	movw	r3, #1784	; 0x6f8
    138c:	f2c2 0300 	movt	r3, #8192	; 0x2000
    1390:	60da      	str	r2, [r3, #12]
    1392:	f240 63f8 	movw	r3, #1784	; 0x6f8
    1396:	f2c2 0300 	movt	r3, #8192	; 0x2000
    139a:	681a      	ldr	r2, [r3, #0]
    139c:	f240 63f8 	movw	r3, #1784	; 0x6f8
    13a0:	f2c2 0300 	movt	r3, #8192	; 0x2000
    13a4:	429a      	cmp	r2, r3
    13a6:	d035      	beq.n	1414 <chSysTimerHandlerI+0xd4>
    13a8:	f240 63f8 	movw	r3, #1784	; 0x6f8
    13ac:	f2c2 0300 	movt	r3, #8192	; 0x2000
    13b0:	681b      	ldr	r3, [r3, #0]
    13b2:	689a      	ldr	r2, [r3, #8]
    13b4:	f102 32ff 	add.w	r2, r2, #4294967295
    13b8:	609a      	str	r2, [r3, #8]
    13ba:	e021      	b.n	1400 <chSysTimerHandlerI+0xc0>
    13bc:	9b01      	ldr	r3, [sp, #4]
    13be:	68db      	ldr	r3, [r3, #12]
    13c0:	9300      	str	r3, [sp, #0]
    13c2:	9b01      	ldr	r3, [sp, #4]
    13c4:	f04f 0200 	mov.w	r2, #0
    13c8:	60da      	str	r2, [r3, #12]
    13ca:	9b01      	ldr	r3, [sp, #4]
    13cc:	681a      	ldr	r2, [r3, #0]
    13ce:	f240 63f8 	movw	r3, #1784	; 0x6f8
    13d2:	f2c2 0300 	movt	r3, #8192	; 0x2000
    13d6:	6053      	str	r3, [r2, #4]
    13d8:	9b01      	ldr	r3, [sp, #4]
    13da:	681a      	ldr	r2, [r3, #0]
    13dc:	f240 63f8 	movw	r3, #1784	; 0x6f8
    13e0:	f2c2 0300 	movt	r3, #8192	; 0x2000
    13e4:	601a      	str	r2, [r3, #0]
    13e6:	f04f 0300 	mov.w	r3, #0
    13ea:	f383 8811 	msr	BASEPRI, r3
    13ee:	9b01      	ldr	r3, [sp, #4]
    13f0:	691a      	ldr	r2, [r3, #16]
    13f2:	9b00      	ldr	r3, [sp, #0]
    13f4:	4610      	mov	r0, r2
    13f6:	4798      	blx	r3
    13f8:	f04f 0320 	mov.w	r3, #32
    13fc:	f383 8811 	msr	BASEPRI, r3
    1400:	f240 63f8 	movw	r3, #1784	; 0x6f8
    1404:	f2c2 0300 	movt	r3, #8192	; 0x2000
    1408:	681b      	ldr	r3, [r3, #0]
    140a:	9301      	str	r3, [sp, #4]
    140c:	9b01      	ldr	r3, [sp, #4]
    140e:	689b      	ldr	r3, [r3, #8]
    1410:	2b00      	cmp	r3, #0
    1412:	d0d3      	beq.n	13bc <chSysTimerHandlerI+0x7c>
#if defined(SYSTEM_TICK_EVENT_HOOK)
  SYSTEM_TICK_EVENT_HOOK();
#endif
}
    1414:	b003      	add	sp, #12
    1416:	bd00      	pop	{pc}
    1418:	f3af 8000 	nop.w
    141c:	f3af 8000 	nop.w

00001420 <_vt_init>:
 *
 * @notapi
 */
void _vt_init(void) {

  vtlist.vt_next = vtlist.vt_prev = (void *)&vtlist;
    1420:	f240 63f8 	movw	r3, #1784	; 0x6f8
    1424:	f2c2 0300 	movt	r3, #8192	; 0x2000
    1428:	f240 62f8 	movw	r2, #1784	; 0x6f8
    142c:	f2c2 0200 	movt	r2, #8192	; 0x2000
    1430:	605a      	str	r2, [r3, #4]
    1432:	f240 63f8 	movw	r3, #1784	; 0x6f8
    1436:	f2c2 0300 	movt	r3, #8192	; 0x2000
    143a:	685a      	ldr	r2, [r3, #4]
    143c:	f240 63f8 	movw	r3, #1784	; 0x6f8
    1440:	f2c2 0300 	movt	r3, #8192	; 0x2000
    1444:	601a      	str	r2, [r3, #0]
  vtlist.vt_time = (systime_t)-1;
    1446:	f240 63f8 	movw	r3, #1784	; 0x6f8
    144a:	f2c2 0300 	movt	r3, #8192	; 0x2000
    144e:	f04f 32ff 	mov.w	r2, #4294967295
    1452:	609a      	str	r2, [r3, #8]
  vtlist.vt_systime = 0;
    1454:	f240 63f8 	movw	r3, #1784	; 0x6f8
    1458:	f2c2 0300 	movt	r3, #8192	; 0x2000
    145c:	f04f 0200 	mov.w	r2, #0
    1460:	60da      	str	r2, [r3, #12]
}
    1462:	4770      	bx	lr
    1464:	f3af 8000 	nop.w
    1468:	f3af 8000 	nop.w
    146c:	f3af 8000 	nop.w

00001470 <chVTSetI>:
 * @param[in] par       a parameter that will be passed to the callback
 *                      function
 *
 * @iclass
 */
void chVTSetI(VirtualTimer *vtp, systime_t time, vtfunc_t vtfunc, void *par) {
    1470:	b086      	sub	sp, #24
    1472:	9003      	str	r0, [sp, #12]
    1474:	9102      	str	r1, [sp, #8]
    1476:	9201      	str	r2, [sp, #4]
    1478:	9300      	str	r3, [sp, #0]
  VirtualTimer *p;

  chDbgCheckClassI();
  chDbgCheck((vtp != NULL) && (vtfunc != NULL) && (time != TIME_IMMEDIATE),
    147a:	9b03      	ldr	r3, [sp, #12]
    147c:	2b00      	cmp	r3, #0
    147e:	d004      	beq.n	148a <chVTSetI+0x1a>
    1480:	9b01      	ldr	r3, [sp, #4]
    1482:	2b00      	cmp	r3, #0
    1484:	d001      	beq.n	148a <chVTSetI+0x1a>
    1486:	9b02      	ldr	r3, [sp, #8]
    1488:	2b00      	cmp	r3, #0
             "chVTSetI");

  vtp->vt_par = par;
    148a:	9b03      	ldr	r3, [sp, #12]
    148c:	9a00      	ldr	r2, [sp, #0]
    148e:	611a      	str	r2, [r3, #16]
  vtp->vt_func = vtfunc;
    1490:	9b03      	ldr	r3, [sp, #12]
    1492:	9a01      	ldr	r2, [sp, #4]
    1494:	60da      	str	r2, [r3, #12]
  p = vtlist.vt_next;
    1496:	f240 63f8 	movw	r3, #1784	; 0x6f8
    149a:	f2c2 0300 	movt	r3, #8192	; 0x2000
    149e:	681b      	ldr	r3, [r3, #0]
    14a0:	9305      	str	r3, [sp, #20]
  while (p->vt_time < time) {
    14a2:	e007      	b.n	14b4 <chVTSetI+0x44>
    time -= p->vt_time;
    14a4:	9b05      	ldr	r3, [sp, #20]
    14a6:	689b      	ldr	r3, [r3, #8]
    14a8:	9a02      	ldr	r2, [sp, #8]
    14aa:	1ad3      	subs	r3, r2, r3
    14ac:	9302      	str	r3, [sp, #8]
    p = p->vt_next;
    14ae:	9b05      	ldr	r3, [sp, #20]
    14b0:	681b      	ldr	r3, [r3, #0]
    14b2:	9305      	str	r3, [sp, #20]
             "chVTSetI");

  vtp->vt_par = par;
  vtp->vt_func = vtfunc;
  p = vtlist.vt_next;
  while (p->vt_time < time) {
    14b4:	9b05      	ldr	r3, [sp, #20]
    14b6:	689a      	ldr	r2, [r3, #8]
    14b8:	9b02      	ldr	r3, [sp, #8]
    14ba:	429a      	cmp	r2, r3
    14bc:	d3f2      	bcc.n	14a4 <chVTSetI+0x34>
    time -= p->vt_time;
    p = p->vt_next;
  }

  vtp->vt_prev = (vtp->vt_next = p)->vt_prev;
    14be:	9b03      	ldr	r3, [sp, #12]
    14c0:	9a05      	ldr	r2, [sp, #20]
    14c2:	601a      	str	r2, [r3, #0]
    14c4:	9b03      	ldr	r3, [sp, #12]
    14c6:	681b      	ldr	r3, [r3, #0]
    14c8:	685a      	ldr	r2, [r3, #4]
    14ca:	9b03      	ldr	r3, [sp, #12]
    14cc:	605a      	str	r2, [r3, #4]
  vtp->vt_prev->vt_next = p->vt_prev = vtp;
    14ce:	9b03      	ldr	r3, [sp, #12]
    14d0:	685b      	ldr	r3, [r3, #4]
    14d2:	9a05      	ldr	r2, [sp, #20]
    14d4:	9903      	ldr	r1, [sp, #12]
    14d6:	6051      	str	r1, [r2, #4]
    14d8:	9a05      	ldr	r2, [sp, #20]
    14da:	6852      	ldr	r2, [r2, #4]
    14dc:	601a      	str	r2, [r3, #0]
  vtp->vt_time = time;
    14de:	9b03      	ldr	r3, [sp, #12]
    14e0:	9a02      	ldr	r2, [sp, #8]
    14e2:	609a      	str	r2, [r3, #8]
  if (p != (void *)&vtlist)
    14e4:	9a05      	ldr	r2, [sp, #20]
    14e6:	f240 63f8 	movw	r3, #1784	; 0x6f8
    14ea:	f2c2 0300 	movt	r3, #8192	; 0x2000
    14ee:	429a      	cmp	r2, r3
    14f0:	d005      	beq.n	14fe <chVTSetI+0x8e>
    p->vt_time -= time;
    14f2:	9b05      	ldr	r3, [sp, #20]
    14f4:	689a      	ldr	r2, [r3, #8]
    14f6:	9b02      	ldr	r3, [sp, #8]
    14f8:	1ad2      	subs	r2, r2, r3
    14fa:	9b05      	ldr	r3, [sp, #20]
    14fc:	609a      	str	r2, [r3, #8]
}
    14fe:	b006      	add	sp, #24
    1500:	4770      	bx	lr
    1502:	bf00      	nop
    1504:	f3af 8000 	nop.w
    1508:	f3af 8000 	nop.w
    150c:	f3af 8000 	nop.w

00001510 <chVTResetI>:
 *
 * @param[in] vtp       the @p VirtualTimer structure pointer
 *
 * @iclass
 */
void chVTResetI(VirtualTimer *vtp) {
    1510:	b082      	sub	sp, #8
    1512:	9001      	str	r0, [sp, #4]
  chDbgCheck(vtp != NULL, "chVTResetI");
  chDbgAssert(vtp->vt_func != NULL,
              "chVTResetI(), #1",
              "timer not set or already triggered");

  if (vtp->vt_next != (void *)&vtlist)
    1514:	9b01      	ldr	r3, [sp, #4]
    1516:	681a      	ldr	r2, [r3, #0]
    1518:	f240 63f8 	movw	r3, #1784	; 0x6f8
    151c:	f2c2 0300 	movt	r3, #8192	; 0x2000
    1520:	429a      	cmp	r2, r3
    1522:	d008      	beq.n	1536 <chVTResetI+0x26>
    vtp->vt_next->vt_time += vtp->vt_time;
    1524:	9b01      	ldr	r3, [sp, #4]
    1526:	681b      	ldr	r3, [r3, #0]
    1528:	9a01      	ldr	r2, [sp, #4]
    152a:	6812      	ldr	r2, [r2, #0]
    152c:	6891      	ldr	r1, [r2, #8]
    152e:	9a01      	ldr	r2, [sp, #4]
    1530:	6892      	ldr	r2, [r2, #8]
    1532:	188a      	adds	r2, r1, r2
    1534:	609a      	str	r2, [r3, #8]
  vtp->vt_prev->vt_next = vtp->vt_next;
    1536:	9b01      	ldr	r3, [sp, #4]
    1538:	685b      	ldr	r3, [r3, #4]
    153a:	9a01      	ldr	r2, [sp, #4]
    153c:	6812      	ldr	r2, [r2, #0]
    153e:	601a      	str	r2, [r3, #0]
  vtp->vt_next->vt_prev = vtp->vt_prev;
    1540:	9b01      	ldr	r3, [sp, #4]
    1542:	681b      	ldr	r3, [r3, #0]
    1544:	9a01      	ldr	r2, [sp, #4]
    1546:	6852      	ldr	r2, [r2, #4]
    1548:	605a      	str	r2, [r3, #4]
  vtp->vt_func = (vtfunc_t)NULL;
    154a:	9b01      	ldr	r3, [sp, #4]
    154c:	f04f 0200 	mov.w	r2, #0
    1550:	60da      	str	r2, [r3, #12]
}
    1552:	b002      	add	sp, #8
    1554:	4770      	bx	lr
    1556:	bf00      	nop
    1558:	f3af 8000 	nop.w
    155c:	f3af 8000 	nop.w

00001560 <chTimeIsWithin>:
 * @retval TRUE         current time within the specified time window.
 * @retval FALSE        current time not within the specified time window.
 *
 * @api
 */
bool_t chTimeIsWithin(systime_t start, systime_t end) {
    1560:	b084      	sub	sp, #16
    1562:	9001      	str	r0, [sp, #4]
    1564:	9100      	str	r1, [sp, #0]

  systime_t time = chTimeNow();
    1566:	f240 63f8 	movw	r3, #1784	; 0x6f8
    156a:	f2c2 0300 	movt	r3, #8192	; 0x2000
    156e:	68db      	ldr	r3, [r3, #12]
    1570:	9303      	str	r3, [sp, #12]
  return end > start ? (time >= start) && (time < end) :
    1572:	9a00      	ldr	r2, [sp, #0]
    1574:	9b01      	ldr	r3, [sp, #4]
    1576:	429a      	cmp	r2, r3
    1578:	d90d      	bls.n	1596 <chTimeIsWithin+0x36>
    157a:	9a03      	ldr	r2, [sp, #12]
    157c:	9b01      	ldr	r3, [sp, #4]
    157e:	429a      	cmp	r2, r3
    1580:	d306      	bcc.n	1590 <chTimeIsWithin+0x30>
    1582:	9a03      	ldr	r2, [sp, #12]
    1584:	9b00      	ldr	r3, [sp, #0]
    1586:	429a      	cmp	r2, r3
    1588:	d202      	bcs.n	1590 <chTimeIsWithin+0x30>
    158a:	f04f 0301 	mov.w	r3, #1
    158e:	e001      	b.n	1594 <chTimeIsWithin+0x34>
    1590:	f04f 0300 	mov.w	r3, #0
    1594:	e00c      	b.n	15b0 <chTimeIsWithin+0x50>
    1596:	9a03      	ldr	r2, [sp, #12]
    1598:	9b01      	ldr	r3, [sp, #4]
    159a:	429a      	cmp	r2, r3
    159c:	d203      	bcs.n	15a6 <chTimeIsWithin+0x46>
                       (time >= start) || (time < end);
    159e:	9a03      	ldr	r2, [sp, #12]
    15a0:	9b00      	ldr	r3, [sp, #0]
    15a2:	429a      	cmp	r2, r3
    15a4:	d202      	bcs.n	15ac <chTimeIsWithin+0x4c>
 * @api
 */
bool_t chTimeIsWithin(systime_t start, systime_t end) {

  systime_t time = chTimeNow();
  return end > start ? (time >= start) && (time < end) :
    15a6:	f04f 0301 	mov.w	r3, #1
    15aa:	e001      	b.n	15b0 <chTimeIsWithin+0x50>
    15ac:	f04f 0300 	mov.w	r3, #0
                       (time >= start) || (time < end);
}
    15b0:	4618      	mov	r0, r3
    15b2:	b004      	add	sp, #16
    15b4:	4770      	bx	lr
    15b6:	bf00      	nop
    15b8:	f3af 8000 	nop.w
    15bc:	f3af 8000 	nop.w

000015c0 <fifo_remove>:
  tp->p_next = (Thread *)tqp;
  tp->p_prev = tqp->p_prev;
  tp->p_prev->p_next = tqp->p_prev = tp;
}

static INLINE Thread *fifo_remove(ThreadsQueue *tqp) {
    15c0:	b084      	sub	sp, #16
    15c2:	9001      	str	r0, [sp, #4]
  Thread *tp = tqp->p_next;
    15c4:	9b01      	ldr	r3, [sp, #4]
    15c6:	681b      	ldr	r3, [r3, #0]
    15c8:	9303      	str	r3, [sp, #12]

  (tqp->p_next = tp->p_next)->p_prev = (Thread *)tqp;
    15ca:	9b03      	ldr	r3, [sp, #12]
    15cc:	681a      	ldr	r2, [r3, #0]
    15ce:	9b01      	ldr	r3, [sp, #4]
    15d0:	601a      	str	r2, [r3, #0]
    15d2:	9b01      	ldr	r3, [sp, #4]
    15d4:	681b      	ldr	r3, [r3, #0]
    15d6:	9a01      	ldr	r2, [sp, #4]
    15d8:	605a      	str	r2, [r3, #4]
  return tp;
    15da:	9b03      	ldr	r3, [sp, #12]
}
    15dc:	4618      	mov	r0, r3
    15de:	b004      	add	sp, #16
    15e0:	4770      	bx	lr
    15e2:	bf00      	nop
    15e4:	f3af 8000 	nop.w
    15e8:	f3af 8000 	nop.w
    15ec:	f3af 8000 	nop.w

000015f0 <dequeue>:

  (tqp->p_prev = tp->p_prev)->p_next = (Thread *)tqp;
  return tp;
}

static INLINE Thread *dequeue(Thread *tp) {
    15f0:	b082      	sub	sp, #8
    15f2:	9001      	str	r0, [sp, #4]

  tp->p_prev->p_next = tp->p_next;
    15f4:	9b01      	ldr	r3, [sp, #4]
    15f6:	685b      	ldr	r3, [r3, #4]
    15f8:	9a01      	ldr	r2, [sp, #4]
    15fa:	6812      	ldr	r2, [r2, #0]
    15fc:	601a      	str	r2, [r3, #0]
  tp->p_next->p_prev = tp->p_prev;
    15fe:	9b01      	ldr	r3, [sp, #4]
    1600:	681b      	ldr	r3, [r3, #0]
    1602:	9a01      	ldr	r2, [sp, #4]
    1604:	6852      	ldr	r2, [r2, #4]
    1606:	605a      	str	r2, [r3, #4]
  return tp;
    1608:	9b01      	ldr	r3, [sp, #4]
}
    160a:	4618      	mov	r0, r3
    160c:	b002      	add	sp, #8
    160e:	4770      	bx	lr

00001610 <_scheduler_init>:
 *
 * @notapi
 */
void _scheduler_init(void) {

  queue_init(&rlist.r_queue);
    1610:	f240 7308 	movw	r3, #1800	; 0x708
    1614:	f2c2 0300 	movt	r3, #8192	; 0x2000
    1618:	f240 7208 	movw	r2, #1800	; 0x708
    161c:	f2c2 0200 	movt	r2, #8192	; 0x2000
    1620:	605a      	str	r2, [r3, #4]
    1622:	f240 7308 	movw	r3, #1800	; 0x708
    1626:	f2c2 0300 	movt	r3, #8192	; 0x2000
    162a:	685a      	ldr	r2, [r3, #4]
    162c:	f240 7308 	movw	r3, #1800	; 0x708
    1630:	f2c2 0300 	movt	r3, #8192	; 0x2000
    1634:	601a      	str	r2, [r3, #0]
  rlist.r_prio = NOPRIO;
    1636:	f240 7308 	movw	r3, #1800	; 0x708
    163a:	f2c2 0300 	movt	r3, #8192	; 0x2000
    163e:	f04f 0200 	mov.w	r2, #0
    1642:	609a      	str	r2, [r3, #8]
#if CH_USE_REGISTRY
  rlist.r_newer = rlist.r_older = (Thread *)&rlist;
    1644:	f240 7308 	movw	r3, #1800	; 0x708
    1648:	f2c2 0300 	movt	r3, #8192	; 0x2000
    164c:	f240 7208 	movw	r2, #1800	; 0x708
    1650:	f2c2 0200 	movt	r2, #8192	; 0x2000
    1654:	615a      	str	r2, [r3, #20]
    1656:	f240 7308 	movw	r3, #1800	; 0x708
    165a:	f2c2 0300 	movt	r3, #8192	; 0x2000
    165e:	695a      	ldr	r2, [r3, #20]
    1660:	f240 7308 	movw	r3, #1800	; 0x708
    1664:	f2c2 0300 	movt	r3, #8192	; 0x2000
    1668:	611a      	str	r2, [r3, #16]
#endif
}
    166a:	4770      	bx	lr
    166c:	f3af 8000 	nop.w

00001670 <chSchReadyI>:
 * @return              The thread pointer.
 *
 * @iclass
 */
#if !defined(PORT_OPTIMIZED_READYI) || defined(__DOXYGEN__)
Thread *chSchReadyI(Thread *tp) {
    1670:	b084      	sub	sp, #16
    1672:	9001      	str	r0, [sp, #4]
  Thread *cp;

  chDbgCheckClassI();

  /* Integrity checks.*/
  chDbgAssert((tp->p_state != THD_STATE_READY) &&
    1674:	9b01      	ldr	r3, [sp, #4]
    1676:	7f1b      	ldrb	r3, [r3, #28]
 * @return              The thread pointer.
 *
 * @iclass
 */
#if !defined(PORT_OPTIMIZED_READYI) || defined(__DOXYGEN__)
Thread *chSchReadyI(Thread *tp) {
    1678:	2b00      	cmp	r3, #0
    167a:	d003      	beq.n	1684 <chSchReadyI+0x14>
  Thread *cp;

  chDbgCheckClassI();

  /* Integrity checks.*/
  chDbgAssert((tp->p_state != THD_STATE_READY) &&
    167c:	9b01      	ldr	r3, [sp, #4]
    167e:	7f1b      	ldrb	r3, [r3, #28]
    1680:	2b0e      	cmp	r3, #14
 * @return              The thread pointer.
 *
 * @iclass
 */
#if !defined(PORT_OPTIMIZED_READYI) || defined(__DOXYGEN__)
Thread *chSchReadyI(Thread *tp) {
    1682:	bf00      	nop
  chDbgAssert((tp->p_state != THD_STATE_READY) &&
              (tp->p_state != THD_STATE_FINAL),
              "chSchReadyI(), #1",
              "invalid state");

  tp->p_state = THD_STATE_READY;
    1684:	9b01      	ldr	r3, [sp, #4]
    1686:	f04f 0200 	mov.w	r2, #0
    168a:	771a      	strb	r2, [r3, #28]
  cp = (Thread *)&rlist.r_queue;
    168c:	f240 7308 	movw	r3, #1800	; 0x708
    1690:	f2c2 0300 	movt	r3, #8192	; 0x2000
    1694:	9303      	str	r3, [sp, #12]
  do {
    cp = cp->p_next;
    1696:	9b03      	ldr	r3, [sp, #12]
    1698:	681b      	ldr	r3, [r3, #0]
    169a:	9303      	str	r3, [sp, #12]
  } while (cp->p_prio >= tp->p_prio);
    169c:	9b03      	ldr	r3, [sp, #12]
    169e:	689a      	ldr	r2, [r3, #8]
    16a0:	9b01      	ldr	r3, [sp, #4]
    16a2:	689b      	ldr	r3, [r3, #8]
    16a4:	429a      	cmp	r2, r3
    16a6:	d2f6      	bcs.n	1696 <chSchReadyI+0x26>
  /* Insertion on p_prev.*/
  tp->p_next = cp;
    16a8:	9b01      	ldr	r3, [sp, #4]
    16aa:	9a03      	ldr	r2, [sp, #12]
    16ac:	601a      	str	r2, [r3, #0]
  tp->p_prev = cp->p_prev;
    16ae:	9b03      	ldr	r3, [sp, #12]
    16b0:	685a      	ldr	r2, [r3, #4]
    16b2:	9b01      	ldr	r3, [sp, #4]
    16b4:	605a      	str	r2, [r3, #4]
  tp->p_prev->p_next = cp->p_prev = tp;
    16b6:	9b01      	ldr	r3, [sp, #4]
    16b8:	685b      	ldr	r3, [r3, #4]
    16ba:	9a03      	ldr	r2, [sp, #12]
    16bc:	9901      	ldr	r1, [sp, #4]
    16be:	6051      	str	r1, [r2, #4]
    16c0:	9a03      	ldr	r2, [sp, #12]
    16c2:	6852      	ldr	r2, [r2, #4]
    16c4:	601a      	str	r2, [r3, #0]
  return tp;
    16c6:	9b01      	ldr	r3, [sp, #4]
}
    16c8:	4618      	mov	r0, r3
    16ca:	b004      	add	sp, #16
    16cc:	4770      	bx	lr
    16ce:	bf00      	nop

000016d0 <chSchGoSleepS>:
 * @param[in] newstate  the new thread state
 *
 * @sclass
 */
#if !defined(PORT_OPTIMIZED_GOSLEEPS) || defined(__DOXYGEN__)
void chSchGoSleepS(tstate_t newstate) {
    16d0:	b500      	push	{lr}
    16d2:	b085      	sub	sp, #20
    16d4:	4603      	mov	r3, r0
    16d6:	f88d 3007 	strb.w	r3, [sp, #7]
  Thread *otp;

  chDbgCheckClassS();

  (otp = currp)->p_state = newstate;
    16da:	f240 7308 	movw	r3, #1800	; 0x708
    16de:	f2c2 0300 	movt	r3, #8192	; 0x2000
    16e2:	699b      	ldr	r3, [r3, #24]
    16e4:	9303      	str	r3, [sp, #12]
    16e6:	9b03      	ldr	r3, [sp, #12]
    16e8:	f89d 2007 	ldrb.w	r2, [sp, #7]
    16ec:	771a      	strb	r2, [r3, #28]
#if CH_TIME_QUANTUM > 0
  /* The thread is renouncing its remaining time slices so it will have a new
     time quantum when it will wakeup.*/
  otp->p_preempt = CH_TIME_QUANTUM;
    16ee:	9b03      	ldr	r3, [sp, #12]
    16f0:	f04f 0214 	mov.w	r2, #20
    16f4:	77da      	strb	r2, [r3, #31]
#endif
  setcurrp(fifo_remove(&rlist.r_queue));
    16f6:	f240 7008 	movw	r0, #1800	; 0x708
    16fa:	f2c2 0000 	movt	r0, #8192	; 0x2000
    16fe:	f7ff ff5f 	bl	15c0 <fifo_remove>
    1702:	4602      	mov	r2, r0
    1704:	f240 7308 	movw	r3, #1800	; 0x708
    1708:	f2c2 0300 	movt	r3, #8192	; 0x2000
    170c:	619a      	str	r2, [r3, #24]
  currp->p_state = THD_STATE_CURRENT;
    170e:	f240 7308 	movw	r3, #1800	; 0x708
    1712:	f2c2 0300 	movt	r3, #8192	; 0x2000
    1716:	699b      	ldr	r3, [r3, #24]
    1718:	f04f 0201 	mov.w	r2, #1
    171c:	771a      	strb	r2, [r3, #28]
  chSysSwitch(currp, otp);
    171e:	f240 7308 	movw	r3, #1800	; 0x708
    1722:	f2c2 0300 	movt	r3, #8192	; 0x2000
    1726:	699b      	ldr	r3, [r3, #24]
    1728:	4618      	mov	r0, r3
    172a:	9903      	ldr	r1, [sp, #12]
    172c:	f000 ff90 	bl	2650 <_port_switch>
}
    1730:	b005      	add	sp, #20
    1732:	bd00      	pop	{pc}
    1734:	f3af 8000 	nop.w
    1738:	f3af 8000 	nop.w
    173c:	f3af 8000 	nop.w

00001740 <wakeup>:

#if !defined(PORT_OPTIMIZED_GOSLEEPTIMEOUTS) || defined(__DOXYGEN__)
/*
 * Timeout wakeup callback.
 */
static void wakeup(void *p) {
    1740:	b500      	push	{lr}
    1742:	b085      	sub	sp, #20
    1744:	9001      	str	r0, [sp, #4]
  Thread *tp = (Thread *)p;
    1746:	9b01      	ldr	r3, [sp, #4]
    1748:	9303      	str	r3, [sp, #12]

  chSysLockFromIsr();
    174a:	f04f 0320 	mov.w	r3, #32
    174e:	f383 8811 	msr	BASEPRI, r3
  switch (tp->p_state) {
    1752:	9b03      	ldr	r3, [sp, #12]
    1754:	7f1b      	ldrb	r3, [r3, #28]
    1756:	2b0d      	cmp	r3, #13
    1758:	d82c      	bhi.n	17b4 <wakeup+0x74>
    175a:	a201      	add	r2, pc, #4	; (adr r2, 1760 <wakeup+0x20>)
    175c:	f852 f023 	ldr.w	pc, [r2, r3, lsl #2]
    1760:	00001799 	muleq	r0, r9, r7
    1764:	000017b5 			; <UNDEFINED> instruction: 0x000017b5
    1768:	000017b5 			; <UNDEFINED> instruction: 0x000017b5
    176c:	000017a3 	andeq	r1, r0, r3, lsr #15
    1770:	000017b5 			; <UNDEFINED> instruction: 0x000017b5
    1774:	000017af 	andeq	r1, r0, pc, lsr #15
    1778:	000017b5 			; <UNDEFINED> instruction: 0x000017b5
    177c:	000017b5 			; <UNDEFINED> instruction: 0x000017b5
    1780:	000017b5 			; <UNDEFINED> instruction: 0x000017b5
    1784:	000017b5 			; <UNDEFINED> instruction: 0x000017b5
    1788:	000017b5 			; <UNDEFINED> instruction: 0x000017b5
    178c:	000017b5 			; <UNDEFINED> instruction: 0x000017b5
    1790:	000017b5 			; <UNDEFINED> instruction: 0x000017b5
    1794:	000017af 	andeq	r1, r0, pc, lsr #15
  case THD_STATE_READY:
    /* Handling the special case where the thread has been made ready by
       another thread with higher priority.*/
    chSysUnlockFromIsr();
    1798:	f04f 0300 	mov.w	r3, #0
    179c:	f383 8811 	msr	BASEPRI, r3
    return;
    17a0:	e013      	b.n	17ca <wakeup+0x8a>
#if CH_USE_SEMAPHORES || CH_USE_QUEUES ||                                   \
    (CH_USE_CONDVARS && CH_USE_CONDVARS_TIMEOUT)
#if CH_USE_SEMAPHORES
  case THD_STATE_WTSEM:
    chSemFastSignalI((Semaphore *)tp->p_u.wtobjp);
    17a2:	9b03      	ldr	r3, [sp, #12]
    17a4:	6a5b      	ldr	r3, [r3, #36]	; 0x24
    17a6:	689a      	ldr	r2, [r3, #8]
    17a8:	f102 0201 	add.w	r2, r2, #1
    17ac:	609a      	str	r2, [r3, #8]
#endif
#if CH_USE_CONDVARS && CH_USE_CONDVARS_TIMEOUT
  case THD_STATE_WTCOND:
#endif
    /* States requiring dequeuing.*/
    dequeue(tp);
    17ae:	9803      	ldr	r0, [sp, #12]
    17b0:	f7ff ff1e 	bl	15f0 <dequeue>
#endif
  }
  tp->p_u.rdymsg = RDY_TIMEOUT;
    17b4:	9b03      	ldr	r3, [sp, #12]
    17b6:	f04f 32ff 	mov.w	r2, #4294967295
    17ba:	625a      	str	r2, [r3, #36]	; 0x24
  chSchReadyI(tp);
    17bc:	9803      	ldr	r0, [sp, #12]
    17be:	f7ff ff57 	bl	1670 <chSchReadyI>
  chSysUnlockFromIsr();
    17c2:	f04f 0300 	mov.w	r3, #0
    17c6:	f383 8811 	msr	BASEPRI, r3
}
    17ca:	b005      	add	sp, #20
    17cc:	bd00      	pop	{pc}
    17ce:	bf00      	nop

000017d0 <chSchGoSleepTimeoutS>:
 * @return              The wakeup message.
 * @retval RDY_TIMEOUT if a timeout occurs.
 *
 * @sclass
 */
msg_t chSchGoSleepTimeoutS(tstate_t newstate, systime_t time) {
    17d0:	b500      	push	{lr}
    17d2:	b089      	sub	sp, #36	; 0x24
    17d4:	4603      	mov	r3, r0
    17d6:	9100      	str	r1, [sp, #0]
    17d8:	f88d 3007 	strb.w	r3, [sp, #7]

  chDbgCheckClassS();

  if (TIME_INFINITE != time) {
    17dc:	9b00      	ldr	r3, [sp, #0]
    17de:	f1b3 3fff 	cmp.w	r3, #4294967295
    17e2:	d01a      	beq.n	181a <chSchGoSleepTimeoutS+0x4a>
    VirtualTimer vt;

    chVTSetI(&vt, time, wakeup, currp);
    17e4:	f240 7308 	movw	r3, #1800	; 0x708
    17e8:	f2c2 0300 	movt	r3, #8192	; 0x2000
    17ec:	699b      	ldr	r3, [r3, #24]
    17ee:	aa03      	add	r2, sp, #12
    17f0:	4610      	mov	r0, r2
    17f2:	9900      	ldr	r1, [sp, #0]
    17f4:	f241 7241 	movw	r2, #5953	; 0x1741
    17f8:	f2c0 0200 	movt	r2, #0
    17fc:	f7ff fe38 	bl	1470 <chVTSetI>
    chSchGoSleepS(newstate);
    1800:	f89d 3007 	ldrb.w	r3, [sp, #7]
    1804:	4618      	mov	r0, r3
    1806:	f7ff ff63 	bl	16d0 <chSchGoSleepS>
    if (chVTIsArmedI(&vt))
    180a:	9b06      	ldr	r3, [sp, #24]
    180c:	2b00      	cmp	r3, #0
    180e:	d009      	beq.n	1824 <chSchGoSleepTimeoutS+0x54>
      chVTResetI(&vt);
    1810:	ab03      	add	r3, sp, #12
    1812:	4618      	mov	r0, r3
    1814:	f7ff fe7c 	bl	1510 <chVTResetI>
    1818:	e004      	b.n	1824 <chSchGoSleepTimeoutS+0x54>
  }
  else
    chSchGoSleepS(newstate);
    181a:	f89d 3007 	ldrb.w	r3, [sp, #7]
    181e:	4618      	mov	r0, r3
    1820:	f7ff ff56 	bl	16d0 <chSchGoSleepS>
  return currp->p_u.rdymsg;
    1824:	f240 7308 	movw	r3, #1800	; 0x708
    1828:	f2c2 0300 	movt	r3, #8192	; 0x2000
    182c:	699b      	ldr	r3, [r3, #24]
    182e:	6a5b      	ldr	r3, [r3, #36]	; 0x24
}
    1830:	4618      	mov	r0, r3
    1832:	b009      	add	sp, #36	; 0x24
    1834:	bd00      	pop	{pc}
    1836:	bf00      	nop
    1838:	f3af 8000 	nop.w
    183c:	f3af 8000 	nop.w

00001840 <chSchWakeupS>:
 * @param[in] msg       message to the awakened thread
 *
 * @sclass
 */
#if !defined(PORT_OPTIMIZED_WAKEUPS) || defined(__DOXYGEN__)
void chSchWakeupS(Thread *ntp, msg_t msg) {
    1840:	b500      	push	{lr}
    1842:	b085      	sub	sp, #20
    1844:	9001      	str	r0, [sp, #4]
    1846:	9100      	str	r1, [sp, #0]

  chDbgCheckClassS();

  ntp->p_u.rdymsg = msg;
    1848:	9b01      	ldr	r3, [sp, #4]
    184a:	9a00      	ldr	r2, [sp, #0]
    184c:	625a      	str	r2, [r3, #36]	; 0x24
  /* If the waken thread has a not-greater priority than the current
     one then it is just inserted in the ready list else it made
     running immediately and the invoking thread goes in the ready
     list instead.*/
  if (ntp->p_prio <= currp->p_prio)
    184e:	9b01      	ldr	r3, [sp, #4]
    1850:	689a      	ldr	r2, [r3, #8]
    1852:	f240 7308 	movw	r3, #1800	; 0x708
    1856:	f2c2 0300 	movt	r3, #8192	; 0x2000
    185a:	699b      	ldr	r3, [r3, #24]
    185c:	689b      	ldr	r3, [r3, #8]
    185e:	429a      	cmp	r2, r3
    1860:	d803      	bhi.n	186a <chSchWakeupS+0x2a>
    chSchReadyI(ntp);
    1862:	9801      	ldr	r0, [sp, #4]
    1864:	f7ff ff04 	bl	1670 <chSchReadyI>
    1868:	e016      	b.n	1898 <chSchWakeupS+0x58>
  else {
    Thread *otp = chSchReadyI(currp);
    186a:	f240 7308 	movw	r3, #1800	; 0x708
    186e:	f2c2 0300 	movt	r3, #8192	; 0x2000
    1872:	699b      	ldr	r3, [r3, #24]
    1874:	4618      	mov	r0, r3
    1876:	f7ff fefb 	bl	1670 <chSchReadyI>
    187a:	9003      	str	r0, [sp, #12]
    setcurrp(ntp);
    187c:	f240 7308 	movw	r3, #1800	; 0x708
    1880:	f2c2 0300 	movt	r3, #8192	; 0x2000
    1884:	9a01      	ldr	r2, [sp, #4]
    1886:	619a      	str	r2, [r3, #24]
    ntp->p_state = THD_STATE_CURRENT;
    1888:	9b01      	ldr	r3, [sp, #4]
    188a:	f04f 0201 	mov.w	r2, #1
    188e:	771a      	strb	r2, [r3, #28]
    chSysSwitch(ntp, otp);
    1890:	9801      	ldr	r0, [sp, #4]
    1892:	9903      	ldr	r1, [sp, #12]
    1894:	f000 fedc 	bl	2650 <_port_switch>
  }
}
    1898:	b005      	add	sp, #20
    189a:	bd00      	pop	{pc}
    189c:	f3af 8000 	nop.w

000018a0 <chSchRescheduleS>:
 *          the ready list then make the higher priority thread running.
 *
 * @sclass
 */
#if !defined(PORT_OPTIMIZED_RESCHEDULES) || defined(__DOXYGEN__)
void chSchRescheduleS(void) {
    18a0:	b508      	push	{r3, lr}

  chDbgCheckClassS();

  if (chSchIsRescRequiredI())
    18a2:	f240 7308 	movw	r3, #1800	; 0x708
    18a6:	f2c2 0300 	movt	r3, #8192	; 0x2000
    18aa:	681b      	ldr	r3, [r3, #0]
    18ac:	689a      	ldr	r2, [r3, #8]
    18ae:	f240 7308 	movw	r3, #1800	; 0x708
    18b2:	f2c2 0300 	movt	r3, #8192	; 0x2000
    18b6:	699b      	ldr	r3, [r3, #24]
    18b8:	689b      	ldr	r3, [r3, #8]
    18ba:	429a      	cmp	r2, r3
    18bc:	d901      	bls.n	18c2 <chSchRescheduleS+0x22>
    chSchDoRescheduleAhead();
    18be:	f000 f837 	bl	1930 <chSchDoRescheduleAhead>
}
    18c2:	bd08      	pop	{r3, pc}
    18c4:	f3af 8000 	nop.w
    18c8:	f3af 8000 	nop.w
    18cc:	f3af 8000 	nop.w

000018d0 <chSchDoRescheduleBehind>:
 *          itself or from within the port layer.
 *
 * @special
 */
#if !defined(PORT_OPTIMIZED_DORESCHEDULEBEHIND) || defined(__DOXYGEN__)
void chSchDoRescheduleBehind(void) {
    18d0:	b500      	push	{lr}
    18d2:	b083      	sub	sp, #12
  Thread *otp;

  otp = currp;
    18d4:	f240 7308 	movw	r3, #1800	; 0x708
    18d8:	f2c2 0300 	movt	r3, #8192	; 0x2000
    18dc:	699b      	ldr	r3, [r3, #24]
    18de:	9301      	str	r3, [sp, #4]
  /* Picks the first thread from the ready queue and makes it current.*/
  setcurrp(fifo_remove(&rlist.r_queue));
    18e0:	f240 7008 	movw	r0, #1800	; 0x708
    18e4:	f2c2 0000 	movt	r0, #8192	; 0x2000
    18e8:	f7ff fe6a 	bl	15c0 <fifo_remove>
    18ec:	4602      	mov	r2, r0
    18ee:	f240 7308 	movw	r3, #1800	; 0x708
    18f2:	f2c2 0300 	movt	r3, #8192	; 0x2000
    18f6:	619a      	str	r2, [r3, #24]
  currp->p_state = THD_STATE_CURRENT;
    18f8:	f240 7308 	movw	r3, #1800	; 0x708
    18fc:	f2c2 0300 	movt	r3, #8192	; 0x2000
    1900:	699b      	ldr	r3, [r3, #24]
    1902:	f04f 0201 	mov.w	r2, #1
    1906:	771a      	strb	r2, [r3, #28]
#if CH_TIME_QUANTUM > 0
  otp->p_preempt = CH_TIME_QUANTUM;
    1908:	9b01      	ldr	r3, [sp, #4]
    190a:	f04f 0214 	mov.w	r2, #20
    190e:	77da      	strb	r2, [r3, #31]
#endif
  chSchReadyI(otp);
    1910:	9801      	ldr	r0, [sp, #4]
    1912:	f7ff fead 	bl	1670 <chSchReadyI>
  chSysSwitch(currp, otp);
    1916:	f240 7308 	movw	r3, #1800	; 0x708
    191a:	f2c2 0300 	movt	r3, #8192	; 0x2000
    191e:	699b      	ldr	r3, [r3, #24]
    1920:	4618      	mov	r0, r3
    1922:	9901      	ldr	r1, [sp, #4]
    1924:	f000 fe94 	bl	2650 <_port_switch>
}
    1928:	b003      	add	sp, #12
    192a:	bd00      	pop	{pc}
    192c:	f3af 8000 	nop.w

00001930 <chSchDoRescheduleAhead>:
 *          itself or from within the port layer.
 *
 * @special
 */
#if !defined(PORT_OPTIMIZED_DORESCHEDULEAHEAD) || defined(__DOXYGEN__)
void chSchDoRescheduleAhead(void) {
    1930:	b500      	push	{lr}
    1932:	b083      	sub	sp, #12
  Thread *otp, *cp;

  otp = currp;
    1934:	f240 7308 	movw	r3, #1800	; 0x708
    1938:	f2c2 0300 	movt	r3, #8192	; 0x2000
    193c:	699b      	ldr	r3, [r3, #24]
    193e:	9300      	str	r3, [sp, #0]
  /* Picks the first thread from the ready queue and makes it current.*/
  setcurrp(fifo_remove(&rlist.r_queue));
    1940:	f240 7008 	movw	r0, #1800	; 0x708
    1944:	f2c2 0000 	movt	r0, #8192	; 0x2000
    1948:	f7ff fe3a 	bl	15c0 <fifo_remove>
    194c:	4602      	mov	r2, r0
    194e:	f240 7308 	movw	r3, #1800	; 0x708
    1952:	f2c2 0300 	movt	r3, #8192	; 0x2000
    1956:	619a      	str	r2, [r3, #24]
  currp->p_state = THD_STATE_CURRENT;
    1958:	f240 7308 	movw	r3, #1800	; 0x708
    195c:	f2c2 0300 	movt	r3, #8192	; 0x2000
    1960:	699b      	ldr	r3, [r3, #24]
    1962:	f04f 0201 	mov.w	r2, #1
    1966:	771a      	strb	r2, [r3, #28]

  otp->p_state = THD_STATE_READY;
    1968:	9b00      	ldr	r3, [sp, #0]
    196a:	f04f 0200 	mov.w	r2, #0
    196e:	771a      	strb	r2, [r3, #28]
  cp = (Thread *)&rlist.r_queue;
    1970:	f240 7308 	movw	r3, #1800	; 0x708
    1974:	f2c2 0300 	movt	r3, #8192	; 0x2000
    1978:	9301      	str	r3, [sp, #4]
  do {
    cp = cp->p_next;
    197a:	9b01      	ldr	r3, [sp, #4]
    197c:	681b      	ldr	r3, [r3, #0]
    197e:	9301      	str	r3, [sp, #4]
  } while (cp->p_prio > otp->p_prio);
    1980:	9b01      	ldr	r3, [sp, #4]
    1982:	689a      	ldr	r2, [r3, #8]
    1984:	9b00      	ldr	r3, [sp, #0]
    1986:	689b      	ldr	r3, [r3, #8]
    1988:	429a      	cmp	r2, r3
    198a:	d8f6      	bhi.n	197a <chSchDoRescheduleAhead+0x4a>
  /* Insertion on p_prev.*/
  otp->p_next = cp;
    198c:	9b00      	ldr	r3, [sp, #0]
    198e:	9a01      	ldr	r2, [sp, #4]
    1990:	601a      	str	r2, [r3, #0]
  otp->p_prev = cp->p_prev;
    1992:	9b01      	ldr	r3, [sp, #4]
    1994:	685a      	ldr	r2, [r3, #4]
    1996:	9b00      	ldr	r3, [sp, #0]
    1998:	605a      	str	r2, [r3, #4]
  otp->p_prev->p_next = cp->p_prev = otp;
    199a:	9b00      	ldr	r3, [sp, #0]
    199c:	685b      	ldr	r3, [r3, #4]
    199e:	9a01      	ldr	r2, [sp, #4]
    19a0:	9900      	ldr	r1, [sp, #0]
    19a2:	6051      	str	r1, [r2, #4]
    19a4:	9a01      	ldr	r2, [sp, #4]
    19a6:	6852      	ldr	r2, [r2, #4]
    19a8:	601a      	str	r2, [r3, #0]

  chSysSwitch(currp, otp);
    19aa:	f240 7308 	movw	r3, #1800	; 0x708
    19ae:	f2c2 0300 	movt	r3, #8192	; 0x2000
    19b2:	699b      	ldr	r3, [r3, #24]
    19b4:	4618      	mov	r0, r3
    19b6:	9900      	ldr	r1, [sp, #0]
    19b8:	f000 fe4a 	bl	2650 <_port_switch>
}
    19bc:	b003      	add	sp, #12
    19be:	bd00      	pop	{pc}

000019c0 <chSchDoReschedule>:
 *          itself or from within the port layer.
 *
 * @special
 */
#if !defined(PORT_OPTIMIZED_DORESCHEDULE) || defined(__DOXYGEN__)
void chSchDoReschedule(void) {
    19c0:	b508      	push	{r3, lr}

#if CH_TIME_QUANTUM > 0
  /* If CH_TIME_QUANTUM is enabled then there are two different scenarios to
     handle on preemption: time quantum elapsed or not.*/
  if (currp->p_preempt == 0) {
    19c2:	f240 7308 	movw	r3, #1800	; 0x708
    19c6:	f2c2 0300 	movt	r3, #8192	; 0x2000
    19ca:	699b      	ldr	r3, [r3, #24]
    19cc:	7fdb      	ldrb	r3, [r3, #31]
    19ce:	2b00      	cmp	r3, #0
    19d0:	d102      	bne.n	19d8 <chSchDoReschedule+0x18>
    /* The thread consumed its time quantum so it is enqueued behind threads
       with same priority level, however, it acquires a new time quantum.*/
    chSchDoRescheduleBehind();
    19d2:	f7ff ff7d 	bl	18d0 <chSchDoRescheduleBehind>
    19d6:	e001      	b.n	19dc <chSchDoReschedule+0x1c>
  }
  else {
    /* The thread didn't consume all its time quantum so it is put ahead of
       threads with equal priority and does not acquire a new time quantum.*/
    chSchDoRescheduleAhead();
    19d8:	f7ff ffaa 	bl	1930 <chSchDoRescheduleAhead>
#else /* !(CH_TIME_QUANTUM > 0) */
  /* If the round-robin mechanism is disabled then the thread goes always
     ahead of its peers.*/
  chSchDoRescheduleAhead();
#endif /* !(CH_TIME_QUANTUM > 0) */
}
    19dc:	bd08      	pop	{r3, pc}
    19de:	bf00      	nop

000019e0 <list_insert>:

static INLINE void list_insert(Thread *tp, ThreadsList *tlp) {
    19e0:	b082      	sub	sp, #8
    19e2:	9001      	str	r0, [sp, #4]
    19e4:	9100      	str	r1, [sp, #0]

  tp->p_next = tlp->p_next;
    19e6:	9b00      	ldr	r3, [sp, #0]
    19e8:	681a      	ldr	r2, [r3, #0]
    19ea:	9b01      	ldr	r3, [sp, #4]
    19ec:	601a      	str	r2, [r3, #0]
  tlp->p_next = tp;
    19ee:	9b00      	ldr	r3, [sp, #0]
    19f0:	9a01      	ldr	r2, [sp, #4]
    19f2:	601a      	str	r2, [r3, #0]
}
    19f4:	b002      	add	sp, #8
    19f6:	4770      	bx	lr
    19f8:	f3af 8000 	nop.w
    19fc:	f3af 8000 	nop.w

00001a00 <list_remove>:

static INLINE Thread *list_remove(ThreadsList *tlp) {
    1a00:	b084      	sub	sp, #16
    1a02:	9001      	str	r0, [sp, #4]

  Thread *tp = tlp->p_next;
    1a04:	9b01      	ldr	r3, [sp, #4]
    1a06:	681b      	ldr	r3, [r3, #0]
    1a08:	9303      	str	r3, [sp, #12]
  tlp->p_next = tp->p_next;
    1a0a:	9b03      	ldr	r3, [sp, #12]
    1a0c:	681a      	ldr	r2, [r3, #0]
    1a0e:	9b01      	ldr	r3, [sp, #4]
    1a10:	601a      	str	r2, [r3, #0]
  return tp;
    1a12:	9b03      	ldr	r3, [sp, #12]
}
    1a14:	4618      	mov	r0, r3
    1a16:	b004      	add	sp, #16
    1a18:	4770      	bx	lr
    1a1a:	bf00      	nop
    1a1c:	f3af 8000 	nop.w

00001a20 <_thread_init>:
 * @param[in] prio      the priority level for the new thread
 * @return              The same thread pointer passed as parameter.
 *
 * @notapi
 */
Thread *_thread_init(Thread *tp, tprio_t prio) {
    1a20:	b082      	sub	sp, #8
    1a22:	9001      	str	r0, [sp, #4]
    1a24:	9100      	str	r1, [sp, #0]

  tp->p_prio = prio;
    1a26:	9b01      	ldr	r3, [sp, #4]
    1a28:	9a00      	ldr	r2, [sp, #0]
    1a2a:	609a      	str	r2, [r3, #8]
  tp->p_state = THD_STATE_SUSPENDED;
    1a2c:	9b01      	ldr	r3, [sp, #4]
    1a2e:	f04f 0202 	mov.w	r2, #2
    1a32:	771a      	strb	r2, [r3, #28]
  tp->p_flags = THD_MEM_MODE_STATIC;
    1a34:	9b01      	ldr	r3, [sp, #4]
    1a36:	f04f 0200 	mov.w	r2, #0
    1a3a:	775a      	strb	r2, [r3, #29]
#if CH_TIME_QUANTUM > 0
  tp->p_preempt = CH_TIME_QUANTUM;
    1a3c:	9b01      	ldr	r3, [sp, #4]
    1a3e:	f04f 0214 	mov.w	r2, #20
    1a42:	77da      	strb	r2, [r3, #31]
#endif
#if CH_USE_MUTEXES
  tp->p_realprio = prio;
    1a44:	9b01      	ldr	r3, [sp, #4]
    1a46:	9a00      	ldr	r2, [sp, #0]
    1a48:	641a      	str	r2, [r3, #64]	; 0x40
  tp->p_mtxlist = NULL;
    1a4a:	9b01      	ldr	r3, [sp, #4]
    1a4c:	f04f 0200 	mov.w	r2, #0
    1a50:	63da      	str	r2, [r3, #60]	; 0x3c
#endif
#if CH_USE_EVENTS
  tp->p_epending = 0;
    1a52:	9b01      	ldr	r3, [sp, #4]
    1a54:	f04f 0200 	mov.w	r2, #0
    1a58:	639a      	str	r2, [r3, #56]	; 0x38
#endif
#if CH_DBG_THREADS_PROFILING
  tp->p_time = 0;
    1a5a:	9b01      	ldr	r3, [sp, #4]
    1a5c:	f04f 0200 	mov.w	r2, #0
    1a60:	621a      	str	r2, [r3, #32]
#endif
#if CH_USE_DYNAMIC
  tp->p_refs = 1;
    1a62:	9b01      	ldr	r3, [sp, #4]
    1a64:	f04f 0201 	mov.w	r2, #1
    1a68:	779a      	strb	r2, [r3, #30]
#endif
#if CH_USE_REGISTRY
  tp->p_name = NULL;
    1a6a:	9b01      	ldr	r3, [sp, #4]
    1a6c:	f04f 0200 	mov.w	r2, #0
    1a70:	619a      	str	r2, [r3, #24]
  REG_INSERT(tp);
    1a72:	9a01      	ldr	r2, [sp, #4]
    1a74:	f240 7308 	movw	r3, #1800	; 0x708
    1a78:	f2c2 0300 	movt	r3, #8192	; 0x2000
    1a7c:	6113      	str	r3, [r2, #16]
    1a7e:	f240 7308 	movw	r3, #1800	; 0x708
    1a82:	f2c2 0300 	movt	r3, #8192	; 0x2000
    1a86:	695a      	ldr	r2, [r3, #20]
    1a88:	9b01      	ldr	r3, [sp, #4]
    1a8a:	615a      	str	r2, [r3, #20]
    1a8c:	9b01      	ldr	r3, [sp, #4]
    1a8e:	695a      	ldr	r2, [r3, #20]
    1a90:	f240 7308 	movw	r3, #1800	; 0x708
    1a94:	f2c2 0300 	movt	r3, #8192	; 0x2000
    1a98:	9901      	ldr	r1, [sp, #4]
    1a9a:	6159      	str	r1, [r3, #20]
    1a9c:	f240 7308 	movw	r3, #1800	; 0x708
    1aa0:	f2c2 0300 	movt	r3, #8192	; 0x2000
    1aa4:	695b      	ldr	r3, [r3, #20]
    1aa6:	6113      	str	r3, [r2, #16]
#endif
#if CH_USE_WAITEXIT
  list_init(&tp->p_waiting);
    1aa8:	9b01      	ldr	r3, [sp, #4]
    1aaa:	f103 0228 	add.w	r2, r3, #40	; 0x28
    1aae:	9b01      	ldr	r3, [sp, #4]
    1ab0:	629a      	str	r2, [r3, #40]	; 0x28
#endif
#if CH_USE_MESSAGES
  queue_init(&tp->p_msgqueue);
    1ab2:	9b01      	ldr	r3, [sp, #4]
    1ab4:	f103 022c 	add.w	r2, r3, #44	; 0x2c
    1ab8:	9b01      	ldr	r3, [sp, #4]
    1aba:	631a      	str	r2, [r3, #48]	; 0x30
    1abc:	9b01      	ldr	r3, [sp, #4]
    1abe:	6b1a      	ldr	r2, [r3, #48]	; 0x30
    1ac0:	9b01      	ldr	r3, [sp, #4]
    1ac2:	62da      	str	r2, [r3, #44]	; 0x2c
  tp->p_stklimit = (stkalign_t *)(tp + 1);
#endif
#if defined(THREAD_EXT_INIT_HOOK)
  THREAD_EXT_INIT_HOOK(tp);
#endif
  return tp;
    1ac4:	9b01      	ldr	r3, [sp, #4]
}
    1ac6:	4618      	mov	r0, r3
    1ac8:	b002      	add	sp, #8
    1aca:	4770      	bx	lr
    1acc:	f3af 8000 	nop.w

00001ad0 <chThdCreateI>:
 *                      the thread into the working space area.
 *
 * @iclass
 */
Thread *chThdCreateI(void *wsp, size_t size,
                     tprio_t prio, tfunc_t pf, void *arg) {
    1ad0:	b500      	push	{lr}
    1ad2:	b087      	sub	sp, #28
    1ad4:	9003      	str	r0, [sp, #12]
    1ad6:	9102      	str	r1, [sp, #8]
    1ad8:	9201      	str	r2, [sp, #4]
    1ada:	9300      	str	r3, [sp, #0]
  /* Thread structure is layed out in the lower part of the thread workspace.*/
  Thread *tp = wsp;
    1adc:	9b03      	ldr	r3, [sp, #12]
    1ade:	9305      	str	r3, [sp, #20]

  chDbgCheckClassI();

  chDbgCheck((wsp != NULL) && (size >= THD_WA_SIZE(0)) &&
    1ae0:	9b03      	ldr	r3, [sp, #12]
    1ae2:	2b00      	cmp	r3, #0
    1ae4:	d007      	beq.n	1af6 <chThdCreateI+0x26>
    1ae6:	9b02      	ldr	r3, [sp, #8]
    1ae8:	2baf      	cmp	r3, #175	; 0xaf
    1aea:	d904      	bls.n	1af6 <chThdCreateI+0x26>
    1aec:	9b01      	ldr	r3, [sp, #4]
    1aee:	2b7f      	cmp	r3, #127	; 0x7f
    1af0:	d801      	bhi.n	1af6 <chThdCreateI+0x26>
    1af2:	9b00      	ldr	r3, [sp, #0]
    1af4:	2b00      	cmp	r3, #0
             (prio <= HIGHPRIO) && (pf != NULL),
             "chThdCreateI");
  SETUP_CONTEXT(wsp, size, pf, arg);
    1af6:	9b02      	ldr	r3, [sp, #8]
    1af8:	f1a3 0324 	sub.w	r3, r3, #36	; 0x24
    1afc:	9a03      	ldr	r2, [sp, #12]
    1afe:	18d2      	adds	r2, r2, r3
    1b00:	9b05      	ldr	r3, [sp, #20]
    1b02:	60da      	str	r2, [r3, #12]
    1b04:	9b05      	ldr	r3, [sp, #20]
    1b06:	68db      	ldr	r3, [r3, #12]
    1b08:	9a00      	ldr	r2, [sp, #0]
    1b0a:	601a      	str	r2, [r3, #0]
    1b0c:	9b05      	ldr	r3, [sp, #20]
    1b0e:	68db      	ldr	r3, [r3, #12]
    1b10:	9a08      	ldr	r2, [sp, #32]
    1b12:	605a      	str	r2, [r3, #4]
    1b14:	9b05      	ldr	r3, [sp, #20]
    1b16:	68da      	ldr	r2, [r3, #12]
    1b18:	f242 6371 	movw	r3, #9841	; 0x2671
    1b1c:	f2c0 0300 	movt	r3, #0
    1b20:	6213      	str	r3, [r2, #32]
  return _thread_init(tp, prio);
    1b22:	9805      	ldr	r0, [sp, #20]
    1b24:	9901      	ldr	r1, [sp, #4]
    1b26:	f7ff ff7b 	bl	1a20 <_thread_init>
    1b2a:	4603      	mov	r3, r0
}
    1b2c:	4618      	mov	r0, r3
    1b2e:	b007      	add	sp, #28
    1b30:	bd00      	pop	{pc}
    1b32:	bf00      	nop
    1b34:	f3af 8000 	nop.w
    1b38:	f3af 8000 	nop.w
    1b3c:	f3af 8000 	nop.w

00001b40 <chThdCreateStatic>:
 *                      the thread into the working space area.
 *
 * @api
 */
Thread *chThdCreateStatic(void *wsp, size_t size,
                          tprio_t prio, tfunc_t pf, void *arg) {
    1b40:	b500      	push	{lr}
    1b42:	b089      	sub	sp, #36	; 0x24
    1b44:	9005      	str	r0, [sp, #20]
    1b46:	9104      	str	r1, [sp, #16]
    1b48:	9203      	str	r2, [sp, #12]
    1b4a:	9302      	str	r3, [sp, #8]
                  CH_THREAD_FILL_VALUE);
  _thread_memfill((uint8_t *)wsp + sizeof(Thread),
                  (uint8_t *)wsp + size,
                  CH_STACK_FILL_VALUE);
#endif
  chSysLock();
    1b4c:	f04f 0320 	mov.w	r3, #32
    1b50:	f383 8811 	msr	BASEPRI, r3
  chSchWakeupS(tp = chThdCreateI(wsp, size, prio, pf, arg), RDY_OK);
    1b54:	9b0a      	ldr	r3, [sp, #40]	; 0x28
    1b56:	9300      	str	r3, [sp, #0]
    1b58:	9805      	ldr	r0, [sp, #20]
    1b5a:	9904      	ldr	r1, [sp, #16]
    1b5c:	9a03      	ldr	r2, [sp, #12]
    1b5e:	9b02      	ldr	r3, [sp, #8]
    1b60:	f7ff ffb6 	bl	1ad0 <chThdCreateI>
    1b64:	9007      	str	r0, [sp, #28]
    1b66:	9807      	ldr	r0, [sp, #28]
    1b68:	f04f 0100 	mov.w	r1, #0
    1b6c:	f7ff fe68 	bl	1840 <chSchWakeupS>
  chSysUnlock();
    1b70:	f04f 0300 	mov.w	r3, #0
    1b74:	f383 8811 	msr	BASEPRI, r3
  return tp;
    1b78:	9b07      	ldr	r3, [sp, #28]
}
    1b7a:	4618      	mov	r0, r3
    1b7c:	b009      	add	sp, #36	; 0x24
    1b7e:	bd00      	pop	{pc}

00001b80 <chThdSetPriority>:
 * @param[in] newprio   the new priority level of the running thread
 * @return              The old priority level.
 *
 * @api
 */
tprio_t chThdSetPriority(tprio_t newprio) {
    1b80:	b500      	push	{lr}
    1b82:	b085      	sub	sp, #20
    1b84:	9001      	str	r0, [sp, #4]
  tprio_t oldprio;

  chDbgCheck(newprio <= HIGHPRIO, "chThdSetPriority");

  chSysLock();
    1b86:	f04f 0320 	mov.w	r3, #32
    1b8a:	f383 8811 	msr	BASEPRI, r3
#if CH_USE_MUTEXES
  oldprio = currp->p_realprio;
    1b8e:	f240 7308 	movw	r3, #1800	; 0x708
    1b92:	f2c2 0300 	movt	r3, #8192	; 0x2000
    1b96:	699b      	ldr	r3, [r3, #24]
    1b98:	6c1b      	ldr	r3, [r3, #64]	; 0x40
    1b9a:	9303      	str	r3, [sp, #12]
  if ((currp->p_prio == currp->p_realprio) || (newprio > currp->p_prio))
    1b9c:	f240 7308 	movw	r3, #1800	; 0x708
    1ba0:	f2c2 0300 	movt	r3, #8192	; 0x2000
    1ba4:	699b      	ldr	r3, [r3, #24]
    1ba6:	689a      	ldr	r2, [r3, #8]
    1ba8:	f240 7308 	movw	r3, #1800	; 0x708
    1bac:	f2c2 0300 	movt	r3, #8192	; 0x2000
    1bb0:	699b      	ldr	r3, [r3, #24]
    1bb2:	6c1b      	ldr	r3, [r3, #64]	; 0x40
    1bb4:	429a      	cmp	r2, r3
    1bb6:	d008      	beq.n	1bca <chThdSetPriority+0x4a>
    1bb8:	f240 7308 	movw	r3, #1800	; 0x708
    1bbc:	f2c2 0300 	movt	r3, #8192	; 0x2000
    1bc0:	699b      	ldr	r3, [r3, #24]
    1bc2:	689a      	ldr	r2, [r3, #8]
    1bc4:	9b01      	ldr	r3, [sp, #4]
    1bc6:	429a      	cmp	r2, r3
    1bc8:	d206      	bcs.n	1bd8 <chThdSetPriority+0x58>
    currp->p_prio = newprio;
    1bca:	f240 7308 	movw	r3, #1800	; 0x708
    1bce:	f2c2 0300 	movt	r3, #8192	; 0x2000
    1bd2:	699b      	ldr	r3, [r3, #24]
    1bd4:	9a01      	ldr	r2, [sp, #4]
    1bd6:	609a      	str	r2, [r3, #8]
  currp->p_realprio = newprio;
    1bd8:	f240 7308 	movw	r3, #1800	; 0x708
    1bdc:	f2c2 0300 	movt	r3, #8192	; 0x2000
    1be0:	699b      	ldr	r3, [r3, #24]
    1be2:	9a01      	ldr	r2, [sp, #4]
    1be4:	641a      	str	r2, [r3, #64]	; 0x40
#else
  oldprio = currp->p_prio;
  currp->p_prio = newprio;
#endif
  chSchRescheduleS();
    1be6:	f7ff fe5b 	bl	18a0 <chSchRescheduleS>
  chSysUnlock();
    1bea:	f04f 0300 	mov.w	r3, #0
    1bee:	f383 8811 	msr	BASEPRI, r3
  return oldprio;
    1bf2:	9b03      	ldr	r3, [sp, #12]
}
    1bf4:	4618      	mov	r0, r3
    1bf6:	b005      	add	sp, #20
    1bf8:	bd00      	pop	{pc}
    1bfa:	bf00      	nop
    1bfc:	f3af 8000 	nop.w

00001c00 <chThdResume>:
 * @param[in] tp        pointer to the thread
 * @return              The pointer to the thread.
 *
 * @api
 */
Thread *chThdResume(Thread *tp) {
    1c00:	b500      	push	{lr}
    1c02:	b083      	sub	sp, #12
    1c04:	9001      	str	r0, [sp, #4]

  chSysLock();
    1c06:	f04f 0320 	mov.w	r3, #32
    1c0a:	f383 8811 	msr	BASEPRI, r3
  chDbgAssert(tp->p_state == THD_STATE_SUSPENDED,
              "chThdResume(), #1",
              "thread not in THD_STATE_SUSPENDED state");
  chSchWakeupS(tp, RDY_OK);
    1c0e:	9801      	ldr	r0, [sp, #4]
    1c10:	f04f 0100 	mov.w	r1, #0
    1c14:	f7ff fe14 	bl	1840 <chSchWakeupS>
  chSysUnlock();
    1c18:	f04f 0300 	mov.w	r3, #0
    1c1c:	f383 8811 	msr	BASEPRI, r3
  return tp;
    1c20:	9b01      	ldr	r3, [sp, #4]
}
    1c22:	4618      	mov	r0, r3
    1c24:	b003      	add	sp, #12
    1c26:	bd00      	pop	{pc}
    1c28:	f3af 8000 	nop.w
    1c2c:	f3af 8000 	nop.w

00001c30 <chThdTerminate>:
 *
 * @param[in] tp        pointer to the thread
 *
 * @api
 */
void chThdTerminate(Thread *tp) {
    1c30:	b082      	sub	sp, #8
    1c32:	9001      	str	r0, [sp, #4]

  chSysLock();
    1c34:	f04f 0320 	mov.w	r3, #32
    1c38:	f383 8811 	msr	BASEPRI, r3
  tp->p_flags |= THD_TERMINATE;
    1c3c:	9b01      	ldr	r3, [sp, #4]
    1c3e:	7f5b      	ldrb	r3, [r3, #29]
    1c40:	f043 0304 	orr.w	r3, r3, #4
    1c44:	b2da      	uxtb	r2, r3
    1c46:	9b01      	ldr	r3, [sp, #4]
    1c48:	775a      	strb	r2, [r3, #29]
  chSysUnlock();
    1c4a:	f04f 0300 	mov.w	r3, #0
    1c4e:	f383 8811 	msr	BASEPRI, r3
}
    1c52:	b002      	add	sp, #8
    1c54:	4770      	bx	lr
    1c56:	bf00      	nop
    1c58:	f3af 8000 	nop.w
    1c5c:	f3af 8000 	nop.w

00001c60 <chThdSleep>:
 *                      - @a TIME_IMMEDIATE this value is not allowed.
 *                      .
 *
 * @api
 */
void chThdSleep(systime_t time) {
    1c60:	b500      	push	{lr}
    1c62:	b083      	sub	sp, #12
    1c64:	9001      	str	r0, [sp, #4]

  chDbgCheck(time != TIME_IMMEDIATE, "chThdSleep");

  chSysLock();
    1c66:	f04f 0320 	mov.w	r3, #32
    1c6a:	f383 8811 	msr	BASEPRI, r3
  chThdSleepS(time);
    1c6e:	f04f 0006 	mov.w	r0, #6
    1c72:	9901      	ldr	r1, [sp, #4]
    1c74:	f7ff fdac 	bl	17d0 <chSchGoSleepTimeoutS>
  chSysUnlock();
    1c78:	f04f 0300 	mov.w	r3, #0
    1c7c:	f383 8811 	msr	BASEPRI, r3
}
    1c80:	b003      	add	sp, #12
    1c82:	bd00      	pop	{pc}
    1c84:	f3af 8000 	nop.w
    1c88:	f3af 8000 	nop.w
    1c8c:	f3af 8000 	nop.w

00001c90 <chThdSleepUntil>:
 *
 * @param[in] time      absolute system time
 *
 * @api
 */
void chThdSleepUntil(systime_t time) {
    1c90:	b500      	push	{lr}
    1c92:	b083      	sub	sp, #12
    1c94:	9001      	str	r0, [sp, #4]

  chSysLock();
    1c96:	f04f 0320 	mov.w	r3, #32
    1c9a:	f383 8811 	msr	BASEPRI, r3
  if ((time -= chTimeNow()) > 0)
    1c9e:	f240 63f8 	movw	r3, #1784	; 0x6f8
    1ca2:	f2c2 0300 	movt	r3, #8192	; 0x2000
    1ca6:	68db      	ldr	r3, [r3, #12]
    1ca8:	9a01      	ldr	r2, [sp, #4]
    1caa:	1ad3      	subs	r3, r2, r3
    1cac:	9301      	str	r3, [sp, #4]
    1cae:	9b01      	ldr	r3, [sp, #4]
    1cb0:	2b00      	cmp	r3, #0
    1cb2:	d004      	beq.n	1cbe <chThdSleepUntil+0x2e>
    chThdSleepS(time);
    1cb4:	f04f 0006 	mov.w	r0, #6
    1cb8:	9901      	ldr	r1, [sp, #4]
    1cba:	f7ff fd89 	bl	17d0 <chSchGoSleepTimeoutS>
  chSysUnlock();
    1cbe:	f04f 0300 	mov.w	r3, #0
    1cc2:	f383 8811 	msr	BASEPRI, r3
}
    1cc6:	b003      	add	sp, #12
    1cc8:	bd00      	pop	{pc}
    1cca:	bf00      	nop
    1ccc:	f3af 8000 	nop.w

00001cd0 <chThdYield>:
 * @details Yields the CPU control to the next thread in the ready list with
 *          equal priority, if any.
 *
 * @api
 */
void chThdYield(void) {
    1cd0:	b508      	push	{r3, lr}

  chSysLock();
    1cd2:	f04f 0320 	mov.w	r3, #32
    1cd6:	f383 8811 	msr	BASEPRI, r3
  chSchDoYieldS();
    1cda:	f240 7308 	movw	r3, #1800	; 0x708
    1cde:	f2c2 0300 	movt	r3, #8192	; 0x2000
    1ce2:	681b      	ldr	r3, [r3, #0]
    1ce4:	689a      	ldr	r2, [r3, #8]
    1ce6:	f240 7308 	movw	r3, #1800	; 0x708
    1cea:	f2c2 0300 	movt	r3, #8192	; 0x2000
    1cee:	699b      	ldr	r3, [r3, #24]
    1cf0:	689b      	ldr	r3, [r3, #8]
    1cf2:	429a      	cmp	r2, r3
    1cf4:	d301      	bcc.n	1cfa <chThdYield+0x2a>
    1cf6:	f7ff fdeb 	bl	18d0 <chSchDoRescheduleBehind>
  chSysUnlock();
    1cfa:	f04f 0300 	mov.w	r3, #0
    1cfe:	f383 8811 	msr	BASEPRI, r3
}
    1d02:	bd08      	pop	{r3, pc}
    1d04:	f3af 8000 	nop.w
    1d08:	f3af 8000 	nop.w
    1d0c:	f3af 8000 	nop.w

00001d10 <chThdExit>:
 *
 * @param[in] msg       thread exit code
 *
 * @api
 */
void chThdExit(msg_t msg) {
    1d10:	b500      	push	{lr}
    1d12:	b083      	sub	sp, #12
    1d14:	9001      	str	r0, [sp, #4]

  chSysLock();
    1d16:	f04f 0320 	mov.w	r3, #32
    1d1a:	f383 8811 	msr	BASEPRI, r3
  chThdExitS(msg);
    1d1e:	9801      	ldr	r0, [sp, #4]
    1d20:	f000 f806 	bl	1d30 <chThdExitS>
  /* The thread never returns here.*/
}
    1d24:	b003      	add	sp, #12
    1d26:	bd00      	pop	{pc}
    1d28:	f3af 8000 	nop.w
    1d2c:	f3af 8000 	nop.w

00001d30 <chThdExitS>:
 *
 * @param[in] msg       thread exit code
 *
 * @sclass
 */
void chThdExitS(msg_t msg) {
    1d30:	b500      	push	{lr}
    1d32:	b085      	sub	sp, #20
    1d34:	9001      	str	r0, [sp, #4]
  Thread *tp = currp;
    1d36:	f240 7308 	movw	r3, #1800	; 0x708
    1d3a:	f2c2 0300 	movt	r3, #8192	; 0x2000
    1d3e:	699b      	ldr	r3, [r3, #24]
    1d40:	9303      	str	r3, [sp, #12]

  tp->p_u.exitcode = msg;
    1d42:	9b03      	ldr	r3, [sp, #12]
    1d44:	9a01      	ldr	r2, [sp, #4]
    1d46:	625a      	str	r2, [r3, #36]	; 0x24
#if defined(THREAD_EXT_EXIT_HOOK)
  THREAD_EXT_EXIT_HOOK(tp);
#endif
#if CH_USE_WAITEXIT
  while (notempty(&tp->p_waiting))
    1d48:	e009      	b.n	1d5e <chThdExitS+0x2e>
    chSchReadyI(list_remove(&tp->p_waiting));
    1d4a:	9b03      	ldr	r3, [sp, #12]
    1d4c:	f103 0328 	add.w	r3, r3, #40	; 0x28
    1d50:	4618      	mov	r0, r3
    1d52:	f7ff fe55 	bl	1a00 <list_remove>
    1d56:	4603      	mov	r3, r0
    1d58:	4618      	mov	r0, r3
    1d5a:	f7ff fc89 	bl	1670 <chSchReadyI>
  tp->p_u.exitcode = msg;
#if defined(THREAD_EXT_EXIT_HOOK)
  THREAD_EXT_EXIT_HOOK(tp);
#endif
#if CH_USE_WAITEXIT
  while (notempty(&tp->p_waiting))
    1d5e:	9b03      	ldr	r3, [sp, #12]
    1d60:	6a9a      	ldr	r2, [r3, #40]	; 0x28
    1d62:	9b03      	ldr	r3, [sp, #12]
    1d64:	f103 0328 	add.w	r3, r3, #40	; 0x28
    1d68:	429a      	cmp	r2, r3
    1d6a:	d1ee      	bne.n	1d4a <chThdExitS+0x1a>
    chSchReadyI(list_remove(&tp->p_waiting));
#endif
#if CH_USE_REGISTRY
  /* Static threads are immediately removed from the registry because
     there is no memory to recover.*/
  if ((tp->p_flags & THD_MEM_MODE_MASK) == THD_MEM_MODE_STATIC)
    1d6c:	9b03      	ldr	r3, [sp, #12]
    1d6e:	7f5b      	ldrb	r3, [r3, #29]
    1d70:	f003 0303 	and.w	r3, r3, #3
    1d74:	2b00      	cmp	r3, #0
    1d76:	d109      	bne.n	1d8c <chThdExitS+0x5c>
    REG_REMOVE(tp);
    1d78:	9b03      	ldr	r3, [sp, #12]
    1d7a:	695b      	ldr	r3, [r3, #20]
    1d7c:	9a03      	ldr	r2, [sp, #12]
    1d7e:	6912      	ldr	r2, [r2, #16]
    1d80:	611a      	str	r2, [r3, #16]
    1d82:	9b03      	ldr	r3, [sp, #12]
    1d84:	691b      	ldr	r3, [r3, #16]
    1d86:	9a03      	ldr	r2, [sp, #12]
    1d88:	6952      	ldr	r2, [r2, #20]
    1d8a:	615a      	str	r2, [r3, #20]
#endif
  chSchGoSleepS(THD_STATE_FINAL);
    1d8c:	f04f 000e 	mov.w	r0, #14
    1d90:	f7ff fc9e 	bl	16d0 <chSchGoSleepS>
  /* The thread never returns here.*/
  chDbgAssert(FALSE, "chThdExitS(), #1", "zombies apocalypse");
}
    1d94:	b005      	add	sp, #20
    1d96:	bd00      	pop	{pc}
    1d98:	f3af 8000 	nop.w
    1d9c:	f3af 8000 	nop.w

00001da0 <chThdWait>:
 * @param[in] tp        pointer to the thread
 * @return              The exit code from the terminated thread.
 *
 * @api
 */
msg_t chThdWait(Thread *tp) {
    1da0:	b500      	push	{lr}
    1da2:	b085      	sub	sp, #20
    1da4:	9001      	str	r0, [sp, #4]
  msg_t msg;

  chDbgCheck(tp != NULL, "chThdWait");

  chSysLock();
    1da6:	f04f 0320 	mov.w	r3, #32
    1daa:	f383 8811 	msr	BASEPRI, r3
  chDbgAssert(tp != currp, "chThdWait(), #1", "waiting self");
#if CH_USE_DYNAMIC
  chDbgAssert(tp->p_refs > 0, "chThdWait(), #2", "not referenced");
#endif
  if (tp->p_state != THD_STATE_FINAL) {
    1dae:	9b01      	ldr	r3, [sp, #4]
    1db0:	7f1b      	ldrb	r3, [r3, #28]
    1db2:	2b0e      	cmp	r3, #14
    1db4:	d00f      	beq.n	1dd6 <chThdWait+0x36>
    list_insert(currp, &tp->p_waiting);
    1db6:	f240 7308 	movw	r3, #1800	; 0x708
    1dba:	f2c2 0300 	movt	r3, #8192	; 0x2000
    1dbe:	699a      	ldr	r2, [r3, #24]
    1dc0:	9b01      	ldr	r3, [sp, #4]
    1dc2:	f103 0328 	add.w	r3, r3, #40	; 0x28
    1dc6:	4610      	mov	r0, r2
    1dc8:	4619      	mov	r1, r3
    1dca:	f7ff fe09 	bl	19e0 <list_insert>
    chSchGoSleepS(THD_STATE_WTEXIT);
    1dce:	f04f 0007 	mov.w	r0, #7
    1dd2:	f7ff fc7d 	bl	16d0 <chSchGoSleepS>
  }
  msg = tp->p_u.exitcode;
    1dd6:	9b01      	ldr	r3, [sp, #4]
    1dd8:	6a5b      	ldr	r3, [r3, #36]	; 0x24
    1dda:	9303      	str	r3, [sp, #12]
  chSysUnlock();
    1ddc:	f04f 0300 	mov.w	r3, #0
    1de0:	f383 8811 	msr	BASEPRI, r3
#if CH_USE_DYNAMIC
  chThdRelease(tp);
    1de4:	9801      	ldr	r0, [sp, #4]
    1de6:	f000 f823 	bl	1e30 <chThdRelease>
#endif
  return msg;
    1dea:	9b03      	ldr	r3, [sp, #12]
}
    1dec:	4618      	mov	r0, r3
    1dee:	b005      	add	sp, #20
    1df0:	bd00      	pop	{pc}
    1df2:	bf00      	nop
    1df4:	f3af 8000 	nop.w
    1df8:	f3af 8000 	nop.w
    1dfc:	f3af 8000 	nop.w

00001e00 <chThdAddRef>:
 * @return              The same thread pointer passed as parameter
 *                      representing the new reference.
 *
 * @api
 */
Thread *chThdAddRef(Thread *tp) {
    1e00:	b082      	sub	sp, #8
    1e02:	9001      	str	r0, [sp, #4]

  chSysLock();
    1e04:	f04f 0320 	mov.w	r3, #32
    1e08:	f383 8811 	msr	BASEPRI, r3
  chDbgAssert(tp->p_refs < 255, "chThdAddRef(), #1", "too many references");
  tp->p_refs++;
    1e0c:	9b01      	ldr	r3, [sp, #4]
    1e0e:	7f9b      	ldrb	r3, [r3, #30]
    1e10:	f103 0301 	add.w	r3, r3, #1
    1e14:	b2da      	uxtb	r2, r3
    1e16:	9b01      	ldr	r3, [sp, #4]
    1e18:	779a      	strb	r2, [r3, #30]
  chSysUnlock();
    1e1a:	f04f 0300 	mov.w	r3, #0
    1e1e:	f383 8811 	msr	BASEPRI, r3
  return tp;
    1e22:	9b01      	ldr	r3, [sp, #4]
}
    1e24:	4618      	mov	r0, r3
    1e26:	b002      	add	sp, #8
    1e28:	4770      	bx	lr
    1e2a:	bf00      	nop
    1e2c:	f3af 8000 	nop.w

00001e30 <chThdRelease>:
 *
 * @param[in] tp        pointer to the thread
 *
 * @api
 */
void chThdRelease(Thread *tp) {
    1e30:	b500      	push	{lr}
    1e32:	b085      	sub	sp, #20
    1e34:	9001      	str	r0, [sp, #4]
  trefs_t refs;

  chSysLock();
    1e36:	f04f 0320 	mov.w	r3, #32
    1e3a:	f383 8811 	msr	BASEPRI, r3
  chDbgAssert(tp->p_refs > 0, "chThdRelease(), #1", "not referenced");
  refs = --tp->p_refs;
    1e3e:	9b01      	ldr	r3, [sp, #4]
    1e40:	7f9b      	ldrb	r3, [r3, #30]
    1e42:	f103 33ff 	add.w	r3, r3, #4294967295
    1e46:	b2da      	uxtb	r2, r3
    1e48:	9b01      	ldr	r3, [sp, #4]
    1e4a:	779a      	strb	r2, [r3, #30]
    1e4c:	9b01      	ldr	r3, [sp, #4]
    1e4e:	7f9b      	ldrb	r3, [r3, #30]
    1e50:	f88d 300f 	strb.w	r3, [sp, #15]
  chSysUnlock();
    1e54:	f04f 0300 	mov.w	r3, #0
    1e58:	f383 8811 	msr	BASEPRI, r3

  /* If the references counter reaches zero and the thread is in its
     terminated state then the memory can be returned to the proper
     allocator. Of course static threads are not affected.*/
  if ((refs == 0) && (tp->p_state == THD_STATE_FINAL)) {
    1e5c:	f89d 300f 	ldrb.w	r3, [sp, #15]
    1e60:	2b00      	cmp	r3, #0
    1e62:	d12b      	bne.n	1ebc <chThdRelease+0x8c>
    1e64:	9b01      	ldr	r3, [sp, #4]
    1e66:	7f1b      	ldrb	r3, [r3, #28]
    1e68:	2b0e      	cmp	r3, #14
    1e6a:	d127      	bne.n	1ebc <chThdRelease+0x8c>
    switch (tp->p_flags & THD_MEM_MODE_MASK) {
    1e6c:	9b01      	ldr	r3, [sp, #4]
    1e6e:	7f5b      	ldrb	r3, [r3, #29]
    1e70:	f003 0303 	and.w	r3, r3, #3
    1e74:	2b01      	cmp	r3, #1
    1e76:	d002      	beq.n	1e7e <chThdRelease+0x4e>
    1e78:	2b02      	cmp	r3, #2
    1e7a:	d00e      	beq.n	1e9a <chThdRelease+0x6a>
    1e7c:	e01e      	b.n	1ebc <chThdRelease+0x8c>
#if CH_USE_HEAP
    case THD_MEM_MODE_HEAP:
#if CH_USE_REGISTRY
      REG_REMOVE(tp);
    1e7e:	9b01      	ldr	r3, [sp, #4]
    1e80:	695b      	ldr	r3, [r3, #20]
    1e82:	9a01      	ldr	r2, [sp, #4]
    1e84:	6912      	ldr	r2, [r2, #16]
    1e86:	611a      	str	r2, [r3, #16]
    1e88:	9b01      	ldr	r3, [sp, #4]
    1e8a:	691b      	ldr	r3, [r3, #16]
    1e8c:	9a01      	ldr	r2, [sp, #4]
    1e8e:	6952      	ldr	r2, [r2, #20]
    1e90:	615a      	str	r2, [r3, #20]
#endif
      chHeapFree(tp);
    1e92:	9801      	ldr	r0, [sp, #4]
    1e94:	f000 f9cc 	bl	2230 <chHeapFree>
      break;
    1e98:	e010      	b.n	1ebc <chThdRelease+0x8c>
#endif
#if CH_USE_MEMPOOLS
    case THD_MEM_MODE_MEMPOOL:
#if CH_USE_REGISTRY
      REG_REMOVE(tp);
    1e9a:	9b01      	ldr	r3, [sp, #4]
    1e9c:	695b      	ldr	r3, [r3, #20]
    1e9e:	9a01      	ldr	r2, [sp, #4]
    1ea0:	6912      	ldr	r2, [r2, #16]
    1ea2:	611a      	str	r2, [r3, #16]
    1ea4:	9b01      	ldr	r3, [sp, #4]
    1ea6:	691b      	ldr	r3, [r3, #16]
    1ea8:	9a01      	ldr	r2, [sp, #4]
    1eaa:	6952      	ldr	r2, [r2, #20]
    1eac:	615a      	str	r2, [r3, #20]
#endif
      chPoolFree(tp->p_mpool, tp);
    1eae:	9b01      	ldr	r3, [sp, #4]
    1eb0:	6c5b      	ldr	r3, [r3, #68]	; 0x44
    1eb2:	4618      	mov	r0, r3
    1eb4:	9901      	ldr	r1, [sp, #4]
    1eb6:	f000 fafb 	bl	24b0 <chPoolFree>
      break;
    1eba:	bf00      	nop
#endif
    }
  }
}
    1ebc:	b005      	add	sp, #20
    1ebe:	bd00      	pop	{pc}

00001ec0 <chThdCreateFromHeap>:
 * @retval NULL         if the memory cannot be allocated.
 *
 * @api
 */
Thread *chThdCreateFromHeap(MemoryHeap *heapp, size_t size,
                            tprio_t prio, tfunc_t pf, void *arg) {
    1ec0:	b500      	push	{lr}
    1ec2:	b089      	sub	sp, #36	; 0x24
    1ec4:	9005      	str	r0, [sp, #20]
    1ec6:	9104      	str	r1, [sp, #16]
    1ec8:	9203      	str	r2, [sp, #12]
    1eca:	9302      	str	r3, [sp, #8]
  void *wsp;
  Thread *tp;

  wsp = chHeapAlloc(heapp, size);
    1ecc:	9805      	ldr	r0, [sp, #20]
    1ece:	9904      	ldr	r1, [sp, #16]
    1ed0:	f000 f92e 	bl	2130 <chHeapAlloc>
    1ed4:	9007      	str	r0, [sp, #28]
  if (wsp == NULL)
    1ed6:	9b07      	ldr	r3, [sp, #28]
    1ed8:	2b00      	cmp	r3, #0
    1eda:	d102      	bne.n	1ee2 <chThdCreateFromHeap+0x22>
    return NULL;
    1edc:	f04f 0300 	mov.w	r3, #0
    1ee0:	e01a      	b.n	1f18 <chThdCreateFromHeap+0x58>
  _thread_memfill((uint8_t *)wsp + sizeof(Thread),
                  (uint8_t *)wsp + size,
                  CH_STACK_FILL_VALUE);
#endif
  
  chSysLock();
    1ee2:	f04f 0320 	mov.w	r3, #32
    1ee6:	f383 8811 	msr	BASEPRI, r3
  tp = chThdCreateI(wsp, size, prio, pf, arg);
    1eea:	9b0a      	ldr	r3, [sp, #40]	; 0x28
    1eec:	9300      	str	r3, [sp, #0]
    1eee:	9807      	ldr	r0, [sp, #28]
    1ef0:	9904      	ldr	r1, [sp, #16]
    1ef2:	9a03      	ldr	r2, [sp, #12]
    1ef4:	9b02      	ldr	r3, [sp, #8]
    1ef6:	f7ff fdeb 	bl	1ad0 <chThdCreateI>
    1efa:	9006      	str	r0, [sp, #24]
  tp->p_flags = THD_MEM_MODE_HEAP;
    1efc:	9b06      	ldr	r3, [sp, #24]
    1efe:	f04f 0201 	mov.w	r2, #1
    1f02:	775a      	strb	r2, [r3, #29]
  chSchWakeupS(tp, RDY_OK);
    1f04:	9806      	ldr	r0, [sp, #24]
    1f06:	f04f 0100 	mov.w	r1, #0
    1f0a:	f7ff fc99 	bl	1840 <chSchWakeupS>
  chSysUnlock();
    1f0e:	f04f 0300 	mov.w	r3, #0
    1f12:	f383 8811 	msr	BASEPRI, r3
  return tp;
    1f16:	9b06      	ldr	r3, [sp, #24]
}
    1f18:	4618      	mov	r0, r3
    1f1a:	b009      	add	sp, #36	; 0x24
    1f1c:	bd00      	pop	{pc}
    1f1e:	bf00      	nop

00001f20 <chThdCreateFromMemoryPool>:
 * @retval  NULL        if the memory pool is empty.
 *
 * @api
 */
Thread *chThdCreateFromMemoryPool(MemoryPool *mp, tprio_t prio,
                                  tfunc_t pf, void *arg) {
    1f20:	b500      	push	{lr}
    1f22:	b089      	sub	sp, #36	; 0x24
    1f24:	9005      	str	r0, [sp, #20]
    1f26:	9104      	str	r1, [sp, #16]
    1f28:	9203      	str	r2, [sp, #12]
    1f2a:	9302      	str	r3, [sp, #8]
  void *wsp;
  Thread *tp;

  chDbgCheck(mp != NULL, "chThdCreateFromMemoryPool");

  wsp = chPoolAlloc(mp);
    1f2c:	9805      	ldr	r0, [sp, #20]
    1f2e:	f000 fa8f 	bl	2450 <chPoolAlloc>
    1f32:	9007      	str	r0, [sp, #28]
  if (wsp == NULL)
    1f34:	9b07      	ldr	r3, [sp, #28]
    1f36:	2b00      	cmp	r3, #0
    1f38:	d102      	bne.n	1f40 <chThdCreateFromMemoryPool+0x20>
    return NULL;
    1f3a:	f04f 0300 	mov.w	r3, #0
    1f3e:	e01f      	b.n	1f80 <chThdCreateFromMemoryPool+0x60>
  _thread_memfill((uint8_t *)wsp + sizeof(Thread),
                  (uint8_t *)wsp + mp->mp_object_size,
                  CH_STACK_FILL_VALUE);
#endif

  chSysLock();
    1f40:	f04f 0320 	mov.w	r3, #32
    1f44:	f383 8811 	msr	BASEPRI, r3
  tp = chThdCreateI(wsp, mp->mp_object_size, prio, pf, arg);
    1f48:	9b05      	ldr	r3, [sp, #20]
    1f4a:	685b      	ldr	r3, [r3, #4]
    1f4c:	9a02      	ldr	r2, [sp, #8]
    1f4e:	9200      	str	r2, [sp, #0]
    1f50:	9807      	ldr	r0, [sp, #28]
    1f52:	4619      	mov	r1, r3
    1f54:	9a04      	ldr	r2, [sp, #16]
    1f56:	9b03      	ldr	r3, [sp, #12]
    1f58:	f7ff fdba 	bl	1ad0 <chThdCreateI>
    1f5c:	9006      	str	r0, [sp, #24]
  tp->p_flags = THD_MEM_MODE_MEMPOOL;
    1f5e:	9b06      	ldr	r3, [sp, #24]
    1f60:	f04f 0202 	mov.w	r2, #2
    1f64:	775a      	strb	r2, [r3, #29]
  tp->p_mpool = mp;
    1f66:	9b06      	ldr	r3, [sp, #24]
    1f68:	9a05      	ldr	r2, [sp, #20]
    1f6a:	645a      	str	r2, [r3, #68]	; 0x44
  chSchWakeupS(tp, RDY_OK);
    1f6c:	9806      	ldr	r0, [sp, #24]
    1f6e:	f04f 0100 	mov.w	r1, #0
    1f72:	f7ff fc65 	bl	1840 <chSchWakeupS>
  chSysUnlock();
    1f76:	f04f 0300 	mov.w	r3, #0
    1f7a:	f383 8811 	msr	BASEPRI, r3
  return tp;
    1f7e:	9b06      	ldr	r3, [sp, #24]
}
    1f80:	4618      	mov	r0, r3
    1f82:	b009      	add	sp, #36	; 0x24
    1f84:	bd00      	pop	{pc}
    1f86:	bf00      	nop
    1f88:	f3af 8000 	nop.w
    1f8c:	f3af 8000 	nop.w

00001f90 <_core_init>:
 */
void _core_init(void) {
#if CH_MEMCORE_SIZE == 0
  extern uint8_t __heap_base__[];
  extern uint8_t __heap_end__[];
  nextmem = (uint8_t *)MEM_ALIGN_NEXT(__heap_base__);
    1f90:	f240 7350 	movw	r3, #1872	; 0x750
    1f94:	f2c2 0300 	movt	r3, #8192	; 0x2000
    1f98:	f103 0307 	add.w	r3, r3, #7
    1f9c:	f023 0307 	bic.w	r3, r3, #7
    1fa0:	461a      	mov	r2, r3
    1fa2:	f240 7324 	movw	r3, #1828	; 0x724
    1fa6:	f2c2 0300 	movt	r3, #8192	; 0x2000
    1faa:	601a      	str	r2, [r3, #0]
  endmem = (uint8_t *)MEM_ALIGN_PREV(__heap_end__);
    1fac:	f24f 0300 	movw	r3, #61440	; 0xf000
    1fb0:	f2c2 0300 	movt	r3, #8192	; 0x2000
    1fb4:	f023 0307 	bic.w	r3, r3, #7
    1fb8:	461a      	mov	r2, r3
    1fba:	f240 7328 	movw	r3, #1832	; 0x728
    1fbe:	f2c2 0300 	movt	r3, #8192	; 0x2000
    1fc2:	601a      	str	r2, [r3, #0]
#else
  static stkalign_t buffer[MEM_ALIGN_NEXT(CH_MEMCORE_SIZE)/MEM_ALIGN_SIZE];
  nextmem = (uint8_t *)&buffer[0];
  endmem = (uint8_t *)&buffer[MEM_ALIGN_NEXT(CH_MEMCORE_SIZE)/MEM_ALIGN_SIZE];
#endif
}
    1fc4:	4770      	bx	lr
    1fc6:	bf00      	nop
    1fc8:	f3af 8000 	nop.w
    1fcc:	f3af 8000 	nop.w

00001fd0 <chCoreAlloc>:
 * @return              A pointer to the allocated memory block.
 * @retval NULL         allocation failed, core memory exhausted.
 *
 * @api
 */
void *chCoreAlloc(size_t size) {
    1fd0:	b500      	push	{lr}
    1fd2:	b085      	sub	sp, #20
    1fd4:	9001      	str	r0, [sp, #4]
  void *p;

  chSysLock();
    1fd6:	f04f 0320 	mov.w	r3, #32
    1fda:	f383 8811 	msr	BASEPRI, r3
  p = chCoreAllocI(size);
    1fde:	9801      	ldr	r0, [sp, #4]
    1fe0:	f000 f80e 	bl	2000 <chCoreAllocI>
    1fe4:	9003      	str	r0, [sp, #12]
  chSysUnlock();
    1fe6:	f04f 0300 	mov.w	r3, #0
    1fea:	f383 8811 	msr	BASEPRI, r3
  return p;
    1fee:	9b03      	ldr	r3, [sp, #12]
}
    1ff0:	4618      	mov	r0, r3
    1ff2:	b005      	add	sp, #20
    1ff4:	bd00      	pop	{pc}
    1ff6:	bf00      	nop
    1ff8:	f3af 8000 	nop.w
    1ffc:	f3af 8000 	nop.w

00002000 <chCoreAllocI>:
 * @return              A pointer to the allocated memory block.
 * @retval NULL         allocation failed, core memory exhausted.
 *
 * @iclass
 */
void *chCoreAllocI(size_t size) {
    2000:	b084      	sub	sp, #16
    2002:	9001      	str	r0, [sp, #4]
  void *p;

  chDbgCheckClassI();

  size = MEM_ALIGN_NEXT(size);
    2004:	9b01      	ldr	r3, [sp, #4]
    2006:	f103 0307 	add.w	r3, r3, #7
    200a:	f023 0307 	bic.w	r3, r3, #7
    200e:	9301      	str	r3, [sp, #4]
  if ((size_t)(endmem - nextmem) < size)
    2010:	f240 7328 	movw	r3, #1832	; 0x728
    2014:	f2c2 0300 	movt	r3, #8192	; 0x2000
    2018:	681b      	ldr	r3, [r3, #0]
    201a:	461a      	mov	r2, r3
    201c:	f240 7324 	movw	r3, #1828	; 0x724
    2020:	f2c2 0300 	movt	r3, #8192	; 0x2000
    2024:	681b      	ldr	r3, [r3, #0]
    2026:	1ad3      	subs	r3, r2, r3
    2028:	461a      	mov	r2, r3
    202a:	9b01      	ldr	r3, [sp, #4]
    202c:	429a      	cmp	r2, r3
    202e:	d202      	bcs.n	2036 <chCoreAllocI+0x36>
    return NULL;
    2030:	f04f 0300 	mov.w	r3, #0
    2034:	e012      	b.n	205c <chCoreAllocI+0x5c>
  p = nextmem;
    2036:	f240 7324 	movw	r3, #1828	; 0x724
    203a:	f2c2 0300 	movt	r3, #8192	; 0x2000
    203e:	681b      	ldr	r3, [r3, #0]
    2040:	9303      	str	r3, [sp, #12]
  nextmem += size;
    2042:	f240 7324 	movw	r3, #1828	; 0x724
    2046:	f2c2 0300 	movt	r3, #8192	; 0x2000
    204a:	681a      	ldr	r2, [r3, #0]
    204c:	9b01      	ldr	r3, [sp, #4]
    204e:	18d2      	adds	r2, r2, r3
    2050:	f240 7324 	movw	r3, #1828	; 0x724
    2054:	f2c2 0300 	movt	r3, #8192	; 0x2000
    2058:	601a      	str	r2, [r3, #0]
  return p;
    205a:	9b03      	ldr	r3, [sp, #12]
}
    205c:	4618      	mov	r0, r3
    205e:	b004      	add	sp, #16
    2060:	4770      	bx	lr
    2062:	bf00      	nop
    2064:	f3af 8000 	nop.w
    2068:	f3af 8000 	nop.w
    206c:	f3af 8000 	nop.w

00002070 <chCoreStatus>:
 *
 * @api
 */
size_t chCoreStatus(void) {

  return (size_t)(endmem - nextmem);
    2070:	f240 7328 	movw	r3, #1832	; 0x728
    2074:	f2c2 0300 	movt	r3, #8192	; 0x2000
    2078:	681b      	ldr	r3, [r3, #0]
    207a:	461a      	mov	r2, r3
    207c:	f240 7324 	movw	r3, #1828	; 0x724
    2080:	f2c2 0300 	movt	r3, #8192	; 0x2000
    2084:	681b      	ldr	r3, [r3, #0]
    2086:	1ad3      	subs	r3, r2, r3
}
    2088:	4618      	mov	r0, r3
    208a:	4770      	bx	lr
    208c:	f3af 8000 	nop.w

00002090 <_heap_init>:
/**
 * @brief   Initializes the default heap.
 *
 * @notapi
 */
void _heap_init(void) {
    2090:	b508      	push	{r3, lr}
  default_heap.h_provider = chCoreAlloc;
    2092:	f240 7330 	movw	r3, #1840	; 0x730
    2096:	f2c2 0300 	movt	r3, #8192	; 0x2000
    209a:	f641 72d1 	movw	r2, #8145	; 0x1fd1
    209e:	f2c0 0200 	movt	r2, #0
    20a2:	601a      	str	r2, [r3, #0]
  default_heap.h_free.h.u.next = (union heap_header *)NULL;
    20a4:	f240 7330 	movw	r3, #1840	; 0x730
    20a8:	f2c2 0300 	movt	r3, #8192	; 0x2000
    20ac:	f04f 0200 	mov.w	r2, #0
    20b0:	609a      	str	r2, [r3, #8]
  default_heap.h_free.h.size = 0;
    20b2:	f240 7330 	movw	r3, #1840	; 0x730
    20b6:	f2c2 0300 	movt	r3, #8192	; 0x2000
    20ba:	f04f 0200 	mov.w	r2, #0
    20be:	60da      	str	r2, [r3, #12]
#if CH_USE_MUTEXES || defined(__DOXYGEN__)
  chMtxInit(&default_heap.h_mtx);
    20c0:	4801      	ldr	r0, [pc, #4]	; (20c8 <_heap_init+0x38>)
    20c2:	f000 fbfd 	bl	28c0 <chMtxInit>
#else
  chSemInit(&default_heap.h_sem, 1);
#endif
}
    20c6:	bd08      	pop	{r3, pc}
    20c8:	20000740 	andcs	r0, r0, r0, asr #14
    20cc:	f3af 8000 	nop.w

000020d0 <chHeapInit>:
 * @param[in] buf       heap buffer base
 * @param[in] size      heap size
 *
 * @init
 */
void chHeapInit(MemoryHeap *heapp, void *buf, size_t size) {
    20d0:	b500      	push	{lr}
    20d2:	b087      	sub	sp, #28
    20d4:	9003      	str	r0, [sp, #12]
    20d6:	9102      	str	r1, [sp, #8]
    20d8:	9201      	str	r2, [sp, #4]
  union heap_header *hp;

  chDbgCheck(MEM_IS_ALIGNED(buf) && MEM_IS_ALIGNED(size), "chHeapInit");
    20da:	9b02      	ldr	r3, [sp, #8]
    20dc:	f003 0307 	and.w	r3, r3, #7
    20e0:	2b00      	cmp	r3, #0
    20e2:	d103      	bne.n	20ec <chHeapInit+0x1c>
    20e4:	9b01      	ldr	r3, [sp, #4]
    20e6:	f003 0307 	and.w	r3, r3, #7
    20ea:	2b00      	cmp	r3, #0

  heapp->h_provider = (memgetfunc_t)NULL;
    20ec:	9b03      	ldr	r3, [sp, #12]
    20ee:	f04f 0200 	mov.w	r2, #0
    20f2:	601a      	str	r2, [r3, #0]
  heapp->h_free.h.u.next = hp = buf;
    20f4:	9b02      	ldr	r3, [sp, #8]
    20f6:	9305      	str	r3, [sp, #20]
    20f8:	9b03      	ldr	r3, [sp, #12]
    20fa:	9a05      	ldr	r2, [sp, #20]
    20fc:	609a      	str	r2, [r3, #8]
  heapp->h_free.h.size = 0;
    20fe:	9b03      	ldr	r3, [sp, #12]
    2100:	f04f 0200 	mov.w	r2, #0
    2104:	60da      	str	r2, [r3, #12]
  hp->h.u.next = NULL;
    2106:	9b05      	ldr	r3, [sp, #20]
    2108:	f04f 0200 	mov.w	r2, #0
    210c:	601a      	str	r2, [r3, #0]
  hp->h.size = size - sizeof(union heap_header);
    210e:	9b01      	ldr	r3, [sp, #4]
    2110:	f1a3 0208 	sub.w	r2, r3, #8
    2114:	9b05      	ldr	r3, [sp, #20]
    2116:	605a      	str	r2, [r3, #4]
#if CH_USE_MUTEXES || defined(__DOXYGEN__)
  chMtxInit(&heapp->h_mtx);
    2118:	9b03      	ldr	r3, [sp, #12]
    211a:	f103 0310 	add.w	r3, r3, #16
    211e:	4618      	mov	r0, r3
    2120:	f000 fbce 	bl	28c0 <chMtxInit>
#else
  chSemInit(&heapp->h_sem, 1);
#endif
}
    2124:	b007      	add	sp, #28
    2126:	bd00      	pop	{pc}
    2128:	f3af 8000 	nop.w
    212c:	f3af 8000 	nop.w

00002130 <chHeapAlloc>:
 * @return              A pointer to the allocated block.
 * @retval NULL         if the block cannot be allocated.
 *
 * @api
 */
void *chHeapAlloc(MemoryHeap *heapp, size_t size) {
    2130:	b500      	push	{lr}
    2132:	b087      	sub	sp, #28
    2134:	9001      	str	r0, [sp, #4]
    2136:	9100      	str	r1, [sp, #0]
  union heap_header *qp, *hp, *fp;

  if (heapp == NULL)
    2138:	9b01      	ldr	r3, [sp, #4]
    213a:	2b00      	cmp	r3, #0
    213c:	d104      	bne.n	2148 <chHeapAlloc+0x18>
    heapp = &default_heap;
    213e:	f240 7330 	movw	r3, #1840	; 0x730
    2142:	f2c2 0300 	movt	r3, #8192	; 0x2000
    2146:	9301      	str	r3, [sp, #4]

  size = MEM_ALIGN_NEXT(size);
    2148:	9b00      	ldr	r3, [sp, #0]
    214a:	f103 0307 	add.w	r3, r3, #7
    214e:	f023 0307 	bic.w	r3, r3, #7
    2152:	9300      	str	r3, [sp, #0]
  qp = &heapp->h_free;
    2154:	9b01      	ldr	r3, [sp, #4]
    2156:	f103 0308 	add.w	r3, r3, #8
    215a:	9305      	str	r3, [sp, #20]
  H_LOCK(heapp);
    215c:	9b01      	ldr	r3, [sp, #4]
    215e:	f103 0310 	add.w	r3, r3, #16
    2162:	4618      	mov	r0, r3
    2164:	f000 fbbc 	bl	28e0 <chMtxLock>

  while (qp->h.u.next != NULL) {
    2168:	e036      	b.n	21d8 <chHeapAlloc+0xa8>
    hp = qp->h.u.next;
    216a:	9b05      	ldr	r3, [sp, #20]
    216c:	681b      	ldr	r3, [r3, #0]
    216e:	9304      	str	r3, [sp, #16]
    if (hp->h.size >= size) {
    2170:	9b04      	ldr	r3, [sp, #16]
    2172:	685a      	ldr	r2, [r3, #4]
    2174:	9b00      	ldr	r3, [sp, #0]
    2176:	429a      	cmp	r2, r3
    2178:	d32c      	bcc.n	21d4 <chHeapAlloc+0xa4>
      if (hp->h.size < size + sizeof(union heap_header)) {
    217a:	9b04      	ldr	r3, [sp, #16]
    217c:	685a      	ldr	r2, [r3, #4]
    217e:	9b00      	ldr	r3, [sp, #0]
    2180:	f103 0308 	add.w	r3, r3, #8
    2184:	429a      	cmp	r2, r3
    2186:	d204      	bcs.n	2192 <chHeapAlloc+0x62>
        /* Gets the whole block even if it is slightly bigger than the
           requested size because the fragment would be too small to be
           useful.*/
        qp->h.u.next = hp->h.u.next;
    2188:	9b04      	ldr	r3, [sp, #16]
    218a:	681a      	ldr	r2, [r3, #0]
    218c:	9b05      	ldr	r3, [sp, #20]
    218e:	601a      	str	r2, [r3, #0]
    2190:	e017      	b.n	21c2 <chHeapAlloc+0x92>
      }
      else {
        /* Block bigger enough, must split it.*/
        fp = (void *)((uint8_t *)(hp) + sizeof(union heap_header) + size);
    2192:	9b00      	ldr	r3, [sp, #0]
    2194:	f103 0308 	add.w	r3, r3, #8
    2198:	9a04      	ldr	r2, [sp, #16]
    219a:	18d3      	adds	r3, r2, r3
    219c:	9303      	str	r3, [sp, #12]
        fp->h.u.next = hp->h.u.next;
    219e:	9b04      	ldr	r3, [sp, #16]
    21a0:	681a      	ldr	r2, [r3, #0]
    21a2:	9b03      	ldr	r3, [sp, #12]
    21a4:	601a      	str	r2, [r3, #0]
        fp->h.size = hp->h.size - sizeof(union heap_header) - size;
    21a6:	9b04      	ldr	r3, [sp, #16]
    21a8:	685a      	ldr	r2, [r3, #4]
    21aa:	9b00      	ldr	r3, [sp, #0]
    21ac:	1ad3      	subs	r3, r2, r3
    21ae:	f1a3 0208 	sub.w	r2, r3, #8
    21b2:	9b03      	ldr	r3, [sp, #12]
    21b4:	605a      	str	r2, [r3, #4]
        qp->h.u.next = fp;
    21b6:	9b05      	ldr	r3, [sp, #20]
    21b8:	9a03      	ldr	r2, [sp, #12]
    21ba:	601a      	str	r2, [r3, #0]
        hp->h.size = size;
    21bc:	9b04      	ldr	r3, [sp, #16]
    21be:	9a00      	ldr	r2, [sp, #0]
    21c0:	605a      	str	r2, [r3, #4]
      }
      hp->h.u.heap = heapp;
    21c2:	9b04      	ldr	r3, [sp, #16]
    21c4:	9a01      	ldr	r2, [sp, #4]
    21c6:	601a      	str	r2, [r3, #0]

      H_UNLOCK(heapp);
    21c8:	f000 fc3a 	bl	2a40 <chMtxUnlock>
      return (void *)(hp + 1);
    21cc:	9b04      	ldr	r3, [sp, #16]
    21ce:	f103 0308 	add.w	r3, r3, #8
    21d2:	e024      	b.n	221e <chHeapAlloc+0xee>
    }
    qp = hp;
    21d4:	9b04      	ldr	r3, [sp, #16]
    21d6:	9305      	str	r3, [sp, #20]

  size = MEM_ALIGN_NEXT(size);
  qp = &heapp->h_free;
  H_LOCK(heapp);

  while (qp->h.u.next != NULL) {
    21d8:	9b05      	ldr	r3, [sp, #20]
    21da:	681b      	ldr	r3, [r3, #0]
    21dc:	2b00      	cmp	r3, #0
    21de:	d1c4      	bne.n	216a <chHeapAlloc+0x3a>
      return (void *)(hp + 1);
    }
    qp = hp;
  }

  H_UNLOCK(heapp);
    21e0:	f000 fc2e 	bl	2a40 <chMtxUnlock>

  /* More memory is required, tries to get it from the associated provider
     else fails.*/
  if (heapp->h_provider) {
    21e4:	9b01      	ldr	r3, [sp, #4]
    21e6:	681b      	ldr	r3, [r3, #0]
    21e8:	2b00      	cmp	r3, #0
    21ea:	d016      	beq.n	221a <chHeapAlloc+0xea>
    hp = heapp->h_provider(size + sizeof(union heap_header));
    21ec:	9b01      	ldr	r3, [sp, #4]
    21ee:	681b      	ldr	r3, [r3, #0]
    21f0:	9a00      	ldr	r2, [sp, #0]
    21f2:	f102 0208 	add.w	r2, r2, #8
    21f6:	4610      	mov	r0, r2
    21f8:	4798      	blx	r3
    21fa:	9004      	str	r0, [sp, #16]
    if (hp != NULL) {
    21fc:	9b04      	ldr	r3, [sp, #16]
    21fe:	2b00      	cmp	r3, #0
    2200:	d00b      	beq.n	221a <chHeapAlloc+0xea>
      hp->h.u.heap = heapp;
    2202:	9b04      	ldr	r3, [sp, #16]
    2204:	9a01      	ldr	r2, [sp, #4]
    2206:	601a      	str	r2, [r3, #0]
      hp->h.size = size;
    2208:	9b04      	ldr	r3, [sp, #16]
    220a:	9a00      	ldr	r2, [sp, #0]
    220c:	605a      	str	r2, [r3, #4]
      hp++;
    220e:	9b04      	ldr	r3, [sp, #16]
    2210:	f103 0308 	add.w	r3, r3, #8
    2214:	9304      	str	r3, [sp, #16]
      return (void *)hp;
    2216:	9b04      	ldr	r3, [sp, #16]
    2218:	e001      	b.n	221e <chHeapAlloc+0xee>
    }
  }
  return NULL;
    221a:	f04f 0300 	mov.w	r3, #0
}
    221e:	4618      	mov	r0, r3
    2220:	b007      	add	sp, #28
    2222:	bd00      	pop	{pc}
    2224:	f3af 8000 	nop.w
    2228:	f3af 8000 	nop.w
    222c:	f3af 8000 	nop.w

00002230 <chHeapFree>:
 *
 * @param[in] p         pointer to the memory block to be freed
 *
 * @api
 */
void chHeapFree(void *p) {
    2230:	b500      	push	{lr}
    2232:	b087      	sub	sp, #28
    2234:	9001      	str	r0, [sp, #4]
  union heap_header *qp, *hp;
  MemoryHeap *heapp;

  chDbgCheck(p != NULL, "chHeapFree");

  hp = (union heap_header *)p - 1;
    2236:	9b01      	ldr	r3, [sp, #4]
    2238:	f1a3 0308 	sub.w	r3, r3, #8
    223c:	9304      	str	r3, [sp, #16]
  heapp = hp->h.u.heap;
    223e:	9b04      	ldr	r3, [sp, #16]
    2240:	681b      	ldr	r3, [r3, #0]
    2242:	9303      	str	r3, [sp, #12]
  qp = &heapp->h_free;
    2244:	9b03      	ldr	r3, [sp, #12]
    2246:	f103 0308 	add.w	r3, r3, #8
    224a:	9305      	str	r3, [sp, #20]
  H_LOCK(heapp);
    224c:	9b03      	ldr	r3, [sp, #12]
    224e:	f103 0310 	add.w	r3, r3, #16
    2252:	4618      	mov	r0, r3
    2254:	f000 fb44 	bl	28e0 <chMtxLock>
 *
 * @param[in] p         pointer to the memory block to be freed
 *
 * @api
 */
void chHeapFree(void *p) {
    2258:	9a04      	ldr	r2, [sp, #16]
    225a:	9b05      	ldr	r3, [sp, #20]
    225c:	429a      	cmp	r2, r3
    225e:	d307      	bcc.n	2270 <chHeapFree+0x40>
  heapp = hp->h.u.heap;
  qp = &heapp->h_free;
  H_LOCK(heapp);

  while (TRUE) {
    chDbgAssert((hp < qp) || (hp >= LIMIT(qp)),
    2260:	9b05      	ldr	r3, [sp, #20]
    2262:	685b      	ldr	r3, [r3, #4]
    2264:	f103 0308 	add.w	r3, r3, #8
    2268:	9a05      	ldr	r2, [sp, #20]
    226a:	18d2      	adds	r2, r2, r3
    226c:	9b04      	ldr	r3, [sp, #16]
    226e:	429a      	cmp	r2, r3
 *
 * @param[in] p         pointer to the memory block to be freed
 *
 * @api
 */
void chHeapFree(void *p) {
    2270:	bf00      	nop
  while (TRUE) {
    chDbgAssert((hp < qp) || (hp >= LIMIT(qp)),
                "chHeapFree(), #1",
                "within free block");

    if (((qp == &heapp->h_free) || (hp > qp)) &&
    2272:	9b03      	ldr	r3, [sp, #12]
    2274:	f103 0208 	add.w	r2, r3, #8
    2278:	9b05      	ldr	r3, [sp, #20]
    227a:	429a      	cmp	r2, r3
    227c:	d003      	beq.n	2286 <chHeapFree+0x56>
    227e:	9a04      	ldr	r2, [sp, #16]
    2280:	9b05      	ldr	r3, [sp, #20]
    2282:	429a      	cmp	r2, r3
    2284:	d93f      	bls.n	2306 <chHeapFree+0xd6>
        ((qp->h.u.next == NULL) || (hp < qp->h.u.next))) {
    2286:	9b05      	ldr	r3, [sp, #20]
    2288:	681b      	ldr	r3, [r3, #0]
  while (TRUE) {
    chDbgAssert((hp < qp) || (hp >= LIMIT(qp)),
                "chHeapFree(), #1",
                "within free block");

    if (((qp == &heapp->h_free) || (hp > qp)) &&
    228a:	2b00      	cmp	r3, #0
    228c:	d004      	beq.n	2298 <chHeapFree+0x68>
        ((qp->h.u.next == NULL) || (hp < qp->h.u.next))) {
    228e:	9b05      	ldr	r3, [sp, #20]
    2290:	681a      	ldr	r2, [r3, #0]
    2292:	9b04      	ldr	r3, [sp, #16]
    2294:	429a      	cmp	r2, r3
    2296:	d936      	bls.n	2306 <chHeapFree+0xd6>
      /* Insertion after qp.*/
      hp->h.u.next = qp->h.u.next;
    2298:	9b05      	ldr	r3, [sp, #20]
    229a:	681a      	ldr	r2, [r3, #0]
    229c:	9b04      	ldr	r3, [sp, #16]
    229e:	601a      	str	r2, [r3, #0]
      qp->h.u.next = hp;
    22a0:	9b05      	ldr	r3, [sp, #20]
    22a2:	9a04      	ldr	r2, [sp, #16]
    22a4:	601a      	str	r2, [r3, #0]
      /* Verifies if the newly inserted block should be merged.*/
      if (LIMIT(hp) == hp->h.u.next) {
    22a6:	9b04      	ldr	r3, [sp, #16]
    22a8:	685b      	ldr	r3, [r3, #4]
    22aa:	f103 0308 	add.w	r3, r3, #8
    22ae:	9a04      	ldr	r2, [sp, #16]
    22b0:	18d2      	adds	r2, r2, r3
    22b2:	9b04      	ldr	r3, [sp, #16]
    22b4:	681b      	ldr	r3, [r3, #0]
    22b6:	429a      	cmp	r2, r3
    22b8:	d10e      	bne.n	22d8 <chHeapFree+0xa8>
        /* Merge with the next block.*/
        hp->h.size += hp->h.u.next->h.size + sizeof(union heap_header);
    22ba:	9b04      	ldr	r3, [sp, #16]
    22bc:	685a      	ldr	r2, [r3, #4]
    22be:	9b04      	ldr	r3, [sp, #16]
    22c0:	681b      	ldr	r3, [r3, #0]
    22c2:	685b      	ldr	r3, [r3, #4]
    22c4:	18d3      	adds	r3, r2, r3
    22c6:	f103 0208 	add.w	r2, r3, #8
    22ca:	9b04      	ldr	r3, [sp, #16]
    22cc:	605a      	str	r2, [r3, #4]
        hp->h.u.next = hp->h.u.next->h.u.next;
    22ce:	9b04      	ldr	r3, [sp, #16]
    22d0:	681b      	ldr	r3, [r3, #0]
    22d2:	681a      	ldr	r2, [r3, #0]
    22d4:	9b04      	ldr	r3, [sp, #16]
    22d6:	601a      	str	r2, [r3, #0]
      }
      if ((LIMIT(qp) == hp)) {
    22d8:	9b05      	ldr	r3, [sp, #20]
    22da:	685b      	ldr	r3, [r3, #4]
    22dc:	f103 0308 	add.w	r3, r3, #8
    22e0:	9a05      	ldr	r2, [sp, #20]
    22e2:	18d2      	adds	r2, r2, r3
    22e4:	9b04      	ldr	r3, [sp, #16]
    22e6:	429a      	cmp	r2, r3
    22e8:	d111      	bne.n	230e <chHeapFree+0xde>
        /* Merge with the previous block.*/
        qp->h.size += hp->h.size + sizeof(union heap_header);
    22ea:	9b05      	ldr	r3, [sp, #20]
    22ec:	685a      	ldr	r2, [r3, #4]
    22ee:	9b04      	ldr	r3, [sp, #16]
    22f0:	685b      	ldr	r3, [r3, #4]
    22f2:	18d3      	adds	r3, r2, r3
    22f4:	f103 0208 	add.w	r2, r3, #8
    22f8:	9b05      	ldr	r3, [sp, #20]
    22fa:	605a      	str	r2, [r3, #4]
        qp->h.u.next = hp->h.u.next;
    22fc:	9b04      	ldr	r3, [sp, #16]
    22fe:	681a      	ldr	r2, [r3, #0]
    2300:	9b05      	ldr	r3, [sp, #20]
    2302:	601a      	str	r2, [r3, #0]
      }
      break;
    2304:	e003      	b.n	230e <chHeapFree+0xde>
    }
    qp = qp->h.u.next;
    2306:	9b05      	ldr	r3, [sp, #20]
    2308:	681b      	ldr	r3, [r3, #0]
    230a:	9305      	str	r3, [sp, #20]
  }
    230c:	e7a4      	b.n	2258 <chHeapFree+0x28>
      if ((LIMIT(qp) == hp)) {
        /* Merge with the previous block.*/
        qp->h.size += hp->h.size + sizeof(union heap_header);
        qp->h.u.next = hp->h.u.next;
      }
      break;
    230e:	bf00      	nop
    }
    qp = qp->h.u.next;
  }

  H_UNLOCK(heapp);
    2310:	f000 fb96 	bl	2a40 <chMtxUnlock>
  return;
}
    2314:	b007      	add	sp, #28
    2316:	bd00      	pop	{pc}
    2318:	f3af 8000 	nop.w
    231c:	f3af 8000 	nop.w

00002320 <chHeapStatus>:
 *                      fragmented free space
 * @return              The number of fragments in the heap.
 *
 * @api
 */
size_t chHeapStatus(MemoryHeap *heapp, size_t *sizep) {
    2320:	b500      	push	{lr}
    2322:	b087      	sub	sp, #28
    2324:	9001      	str	r0, [sp, #4]
    2326:	9100      	str	r1, [sp, #0]
  union heap_header *qp;
  size_t n, sz;

  if (heapp == NULL)
    2328:	9b01      	ldr	r3, [sp, #4]
    232a:	2b00      	cmp	r3, #0
    232c:	d104      	bne.n	2338 <chHeapStatus+0x18>
    heapp = &default_heap;
    232e:	f240 7330 	movw	r3, #1840	; 0x730
    2332:	f2c2 0300 	movt	r3, #8192	; 0x2000
    2336:	9301      	str	r3, [sp, #4]

  H_LOCK(heapp);
    2338:	9b01      	ldr	r3, [sp, #4]
    233a:	f103 0310 	add.w	r3, r3, #16
    233e:	4618      	mov	r0, r3
    2340:	f000 face 	bl	28e0 <chMtxLock>

  sz = 0;
    2344:	f04f 0300 	mov.w	r3, #0
    2348:	9303      	str	r3, [sp, #12]
  for (n = 0, qp = &heapp->h_free; qp->h.u.next; n++, qp = qp->h.u.next)
    234a:	f04f 0300 	mov.w	r3, #0
    234e:	9304      	str	r3, [sp, #16]
    2350:	9b01      	ldr	r3, [sp, #4]
    2352:	f103 0308 	add.w	r3, r3, #8
    2356:	9305      	str	r3, [sp, #20]
    2358:	e00c      	b.n	2374 <chHeapStatus+0x54>
    sz += qp->h.u.next->h.size;
    235a:	9b05      	ldr	r3, [sp, #20]
    235c:	681b      	ldr	r3, [r3, #0]
    235e:	685b      	ldr	r3, [r3, #4]
    2360:	9a03      	ldr	r2, [sp, #12]
    2362:	18d3      	adds	r3, r2, r3
    2364:	9303      	str	r3, [sp, #12]
    heapp = &default_heap;

  H_LOCK(heapp);

  sz = 0;
  for (n = 0, qp = &heapp->h_free; qp->h.u.next; n++, qp = qp->h.u.next)
    2366:	9b04      	ldr	r3, [sp, #16]
    2368:	f103 0301 	add.w	r3, r3, #1
    236c:	9304      	str	r3, [sp, #16]
    236e:	9b05      	ldr	r3, [sp, #20]
    2370:	681b      	ldr	r3, [r3, #0]
    2372:	9305      	str	r3, [sp, #20]
    2374:	9b05      	ldr	r3, [sp, #20]
    2376:	681b      	ldr	r3, [r3, #0]
    2378:	2b00      	cmp	r3, #0
    237a:	d1ee      	bne.n	235a <chHeapStatus+0x3a>
    sz += qp->h.u.next->h.size;
  if (sizep)
    237c:	9b00      	ldr	r3, [sp, #0]
    237e:	2b00      	cmp	r3, #0
    2380:	d002      	beq.n	2388 <chHeapStatus+0x68>
    *sizep = sz;
    2382:	9b00      	ldr	r3, [sp, #0]
    2384:	9a03      	ldr	r2, [sp, #12]
    2386:	601a      	str	r2, [r3, #0]

  H_UNLOCK(heapp);
    2388:	f000 fb5a 	bl	2a40 <chMtxUnlock>
  return n;
    238c:	9b04      	ldr	r3, [sp, #16]
}
    238e:	4618      	mov	r0, r3
    2390:	b007      	add	sp, #28
    2392:	bd00      	pop	{pc}
    2394:	f3af 8000 	nop.w
    2398:	f3af 8000 	nop.w
    239c:	f3af 8000 	nop.w

000023a0 <chPoolInit>:
 *                      @p NULL if the pool is not allowed to grow
 *                      automatically
 *
 * @init
 */
void chPoolInit(MemoryPool *mp, size_t size, memgetfunc_t provider) {
    23a0:	b084      	sub	sp, #16
    23a2:	9003      	str	r0, [sp, #12]
    23a4:	9102      	str	r1, [sp, #8]
    23a6:	9201      	str	r2, [sp, #4]

  chDbgCheck((mp != NULL) && (size >= sizeof(void *)), "chPoolInit");
    23a8:	9b03      	ldr	r3, [sp, #12]
    23aa:	2b00      	cmp	r3, #0
    23ac:	d001      	beq.n	23b2 <chPoolInit+0x12>
    23ae:	9b02      	ldr	r3, [sp, #8]
    23b0:	2b03      	cmp	r3, #3

  mp->mp_next = NULL;
    23b2:	9b03      	ldr	r3, [sp, #12]
    23b4:	f04f 0200 	mov.w	r2, #0
    23b8:	601a      	str	r2, [r3, #0]
  mp->mp_object_size = size;
    23ba:	9b03      	ldr	r3, [sp, #12]
    23bc:	9a02      	ldr	r2, [sp, #8]
    23be:	605a      	str	r2, [r3, #4]
  mp->mp_provider = provider;
    23c0:	9b03      	ldr	r3, [sp, #12]
    23c2:	9a01      	ldr	r2, [sp, #4]
    23c4:	609a      	str	r2, [r3, #8]
}
    23c6:	b004      	add	sp, #16
    23c8:	4770      	bx	lr
    23ca:	bf00      	nop
    23cc:	f3af 8000 	nop.w

000023d0 <chPoolLoadArray>:
 * @param[in] p         pointer to the array first element
 * @param[in] n         number of elements in the array
 *
 * @api
 */
void chPoolLoadArray(MemoryPool *mp, void *p, size_t n) {
    23d0:	b500      	push	{lr}
    23d2:	b085      	sub	sp, #20
    23d4:	9003      	str	r0, [sp, #12]
    23d6:	9102      	str	r1, [sp, #8]
    23d8:	9201      	str	r2, [sp, #4]

  chDbgCheck((mp != NULL) && (n != 0), "chPoolLoadArray");
    23da:	9b03      	ldr	r3, [sp, #12]
    23dc:	2b00      	cmp	r3, #0
    23de:	d00f      	beq.n	2400 <chPoolLoadArray+0x30>
    23e0:	9b01      	ldr	r3, [sp, #4]
    23e2:	2b00      	cmp	r3, #0

  while (n) {
    23e4:	e00c      	b.n	2400 <chPoolLoadArray+0x30>
    chPoolAdd(mp, p);
    23e6:	9803      	ldr	r0, [sp, #12]
    23e8:	9902      	ldr	r1, [sp, #8]
    23ea:	f000 f861 	bl	24b0 <chPoolFree>
    p = (void *)(((uint8_t *)p) + mp->mp_object_size);
    23ee:	9b03      	ldr	r3, [sp, #12]
    23f0:	685b      	ldr	r3, [r3, #4]
    23f2:	9a02      	ldr	r2, [sp, #8]
    23f4:	18d3      	adds	r3, r2, r3
    23f6:	9302      	str	r3, [sp, #8]
    n--;
    23f8:	9b01      	ldr	r3, [sp, #4]
    23fa:	f103 33ff 	add.w	r3, r3, #4294967295
    23fe:	9301      	str	r3, [sp, #4]
 */
void chPoolLoadArray(MemoryPool *mp, void *p, size_t n) {

  chDbgCheck((mp != NULL) && (n != 0), "chPoolLoadArray");

  while (n) {
    2400:	9b01      	ldr	r3, [sp, #4]
    2402:	2b00      	cmp	r3, #0
    2404:	d1ef      	bne.n	23e6 <chPoolLoadArray+0x16>
    chPoolAdd(mp, p);
    p = (void *)(((uint8_t *)p) + mp->mp_object_size);
    n--;
  }
}
    2406:	b005      	add	sp, #20
    2408:	bd00      	pop	{pc}
    240a:	bf00      	nop
    240c:	f3af 8000 	nop.w

00002410 <chPoolAllocI>:
 * @return              The pointer to the allocated object.
 * @retval NULL         if pool is empty.
 *
 * @iclass
 */
void *chPoolAllocI(MemoryPool *mp) {
    2410:	b500      	push	{lr}
    2412:	b085      	sub	sp, #20
    2414:	9001      	str	r0, [sp, #4]
  void *objp;

  chDbgCheckClassI();
  chDbgCheck(mp != NULL, "chPoolAllocI");

  if ((objp = mp->mp_next) != NULL)
    2416:	9b01      	ldr	r3, [sp, #4]
    2418:	681b      	ldr	r3, [r3, #0]
    241a:	9303      	str	r3, [sp, #12]
    241c:	9b03      	ldr	r3, [sp, #12]
    241e:	2b00      	cmp	r3, #0
    2420:	d005      	beq.n	242e <chPoolAllocI+0x1e>
    mp->mp_next = mp->mp_next->ph_next;
    2422:	9b01      	ldr	r3, [sp, #4]
    2424:	681b      	ldr	r3, [r3, #0]
    2426:	681a      	ldr	r2, [r3, #0]
    2428:	9b01      	ldr	r3, [sp, #4]
    242a:	601a      	str	r2, [r3, #0]
    242c:	e00a      	b.n	2444 <chPoolAllocI+0x34>
  else if (mp->mp_provider != NULL)
    242e:	9b01      	ldr	r3, [sp, #4]
    2430:	689b      	ldr	r3, [r3, #8]
    2432:	2b00      	cmp	r3, #0
    2434:	d006      	beq.n	2444 <chPoolAllocI+0x34>
    objp = mp->mp_provider(mp->mp_object_size);
    2436:	9b01      	ldr	r3, [sp, #4]
    2438:	689b      	ldr	r3, [r3, #8]
    243a:	9a01      	ldr	r2, [sp, #4]
    243c:	6852      	ldr	r2, [r2, #4]
    243e:	4610      	mov	r0, r2
    2440:	4798      	blx	r3
    2442:	9003      	str	r0, [sp, #12]
  return objp;
    2444:	9b03      	ldr	r3, [sp, #12]
}
    2446:	4618      	mov	r0, r3
    2448:	b005      	add	sp, #20
    244a:	bd00      	pop	{pc}
    244c:	f3af 8000 	nop.w

00002450 <chPoolAlloc>:
 * @return              The pointer to the allocated object.
 * @retval NULL         if pool is empty.
 *
 * @api
 */
void *chPoolAlloc(MemoryPool *mp) {
    2450:	b500      	push	{lr}
    2452:	b085      	sub	sp, #20
    2454:	9001      	str	r0, [sp, #4]
  void *objp;

  chSysLock();
    2456:	f04f 0320 	mov.w	r3, #32
    245a:	f383 8811 	msr	BASEPRI, r3
  objp = chPoolAllocI(mp);
    245e:	9801      	ldr	r0, [sp, #4]
    2460:	f7ff ffd6 	bl	2410 <chPoolAllocI>
    2464:	9003      	str	r0, [sp, #12]
  chSysUnlock();
    2466:	f04f 0300 	mov.w	r3, #0
    246a:	f383 8811 	msr	BASEPRI, r3
  return objp;
    246e:	9b03      	ldr	r3, [sp, #12]
}
    2470:	4618      	mov	r0, r3
    2472:	b005      	add	sp, #20
    2474:	bd00      	pop	{pc}
    2476:	bf00      	nop
    2478:	f3af 8000 	nop.w
    247c:	f3af 8000 	nop.w

00002480 <chPoolFreeI>:
 * @param[in] mp        pointer to a @p MemoryPool structure
 * @param[in] objp      the pointer to the object to be released
 *
 * @iclass
 */
void chPoolFreeI(MemoryPool *mp, void *objp) {
    2480:	b084      	sub	sp, #16
    2482:	9001      	str	r0, [sp, #4]
    2484:	9100      	str	r1, [sp, #0]
  struct pool_header *php = objp;
    2486:	9b00      	ldr	r3, [sp, #0]
    2488:	9303      	str	r3, [sp, #12]

  chDbgCheckClassI();
  chDbgCheck((mp != NULL) && (objp != NULL), "chPoolFreeI");
    248a:	9b01      	ldr	r3, [sp, #4]
    248c:	2b00      	cmp	r3, #0
    248e:	d001      	beq.n	2494 <chPoolFreeI+0x14>
    2490:	9b00      	ldr	r3, [sp, #0]
    2492:	2b00      	cmp	r3, #0

  php->ph_next = mp->mp_next;
    2494:	9b01      	ldr	r3, [sp, #4]
    2496:	681a      	ldr	r2, [r3, #0]
    2498:	9b03      	ldr	r3, [sp, #12]
    249a:	601a      	str	r2, [r3, #0]
  mp->mp_next = php;
    249c:	9b01      	ldr	r3, [sp, #4]
    249e:	9a03      	ldr	r2, [sp, #12]
    24a0:	601a      	str	r2, [r3, #0]
}
    24a2:	b004      	add	sp, #16
    24a4:	4770      	bx	lr
    24a6:	bf00      	nop
    24a8:	f3af 8000 	nop.w
    24ac:	f3af 8000 	nop.w

000024b0 <chPoolFree>:
 * @param[in] mp        pointer to a @p MemoryPool structure
 * @param[in] objp      the pointer to the object to be released
 *
 * @api
 */
void chPoolFree(MemoryPool *mp, void *objp) {
    24b0:	b500      	push	{lr}
    24b2:	b083      	sub	sp, #12
    24b4:	9001      	str	r0, [sp, #4]
    24b6:	9100      	str	r1, [sp, #0]

  chSysLock();
    24b8:	f04f 0320 	mov.w	r3, #32
    24bc:	f383 8811 	msr	BASEPRI, r3
  chPoolFreeI(mp, objp);
    24c0:	9801      	ldr	r0, [sp, #4]
    24c2:	9900      	ldr	r1, [sp, #0]
    24c4:	f7ff ffdc 	bl	2480 <chPoolFreeI>
  chSysUnlock();
    24c8:	f04f 0300 	mov.w	r3, #0
    24cc:	f383 8811 	msr	BASEPRI, r3
}
    24d0:	b003      	add	sp, #12
    24d2:	bd00      	pop	{pc}
    24d4:	f3af 8000 	nop.w
    24d8:	f3af 8000 	nop.w
    24dc:	f3af 8000 	nop.w

000024e0 <SysTickVector>:
/**
 * @brief   System Timer vector.
 * @details This interrupt is used as system tick.
 * @note    The timer must be initialized in the startup code.
 */
CH_IRQ_HANDLER(SysTickVector) {
    24e0:	b508      	push	{r3, lr}

  CH_IRQ_PROLOGUE();

  chSysLockFromIsr();
    24e2:	f04f 0320 	mov.w	r3, #32
    24e6:	f383 8811 	msr	BASEPRI, r3
  chSysTimerHandlerI();
    24ea:	f7fe ff29 	bl	1340 <chSysTimerHandlerI>
  chSysUnlockFromIsr();
    24ee:	f04f 0300 	mov.w	r3, #0
    24f2:	f383 8811 	msr	BASEPRI, r3

  CH_IRQ_EPILOGUE();
    24f6:	f000 f843 	bl	2580 <_port_irq_epilogue>
}
    24fa:	bd08      	pop	{r3, pc}
    24fc:	f3af 8000 	nop.w

00002500 <SVCallVector>:
 * @brief   SVC vector.
 * @details The SVC vector is used for exception mode re-entering after a
 *          context switch.
 * @note    The PendSV vector is only used in advanced kernel mode.
 */
void SVCallVector(void) {
    2500:	b410      	push	{r4}
    2502:	b083      	sub	sp, #12
  struct extctx *ctxp;

  /* Current PSP value.*/
  asm volatile ("mrs     %0, PSP" : "=r" (ctxp) : : "memory");
    2504:	f3ef 8409 	mrs	r4, PSP
    2508:	9401      	str	r4, [sp, #4]

  /* Discarding the current exception context and positioning the stack to
     point to the real one.*/
  ctxp++;
    250a:	9b01      	ldr	r3, [sp, #4]
    250c:	f103 0320 	add.w	r3, r3, #32
    2510:	9301      	str	r3, [sp, #4]
#if CORTEX_USE_FPU
  /* Restoring the special register SCB_FPCCR.*/
  SCB_FPCCR = (uint32_t)ctxp->fpccr;
  SCB_FPCAR = SCB_FPCAR + sizeof (struct extctx);
#endif
  asm volatile ("msr     PSP, %0" : : "r" (ctxp) : "memory");
    2512:	9b01      	ldr	r3, [sp, #4]
    2514:	f383 8809 	msr	PSP, r3
  port_unlock_from_isr();
    2518:	f04f 0300 	mov.w	r3, #0
    251c:	f383 8811 	msr	BASEPRI, r3
}
    2520:	b003      	add	sp, #12
    2522:	bc10      	pop	{r4}
    2524:	4770      	bx	lr
    2526:	bf00      	nop
    2528:	f3af 8000 	nop.w
    252c:	f3af 8000 	nop.w

00002530 <_port_init>:
/*===========================================================================*/

/**
 * @brief   Port-related initialization code.
 */
void _port_init(void) {
    2530:	b508      	push	{r3, lr}

  /* Initialization of the vector table and priority related settings.*/
  SCB_VTOR = CORTEX_VTOR_INIT;
    2532:	f44f 436d 	mov.w	r3, #60672	; 0xed00
    2536:	f2ce 0300 	movt	r3, #57344	; 0xe000
    253a:	f04f 0200 	mov.w	r2, #0
    253e:	609a      	str	r2, [r3, #8]
  SCB_AIRCR = AIRCR_VECTKEY | AIRCR_PRIGROUP(CORTEX_PRIGROUP_INIT);
    2540:	f44f 436d 	mov.w	r3, #60672	; 0xed00
    2544:	f2ce 0300 	movt	r3, #57344	; 0xe000
    2548:	f44f 7240 	mov.w	r2, #768	; 0x300
    254c:	f2c0 52fa 	movt	r2, #1530	; 0x5fa
    2550:	60da      	str	r2, [r3, #12]

  /* Initialization of the system vectors used by the port.*/
  nvicSetSystemHandlerPriority(HANDLER_SVCALL,
    2552:	f04f 0007 	mov.w	r0, #7
    2556:	f04f 0110 	mov.w	r1, #16
    255a:	f000 f931 	bl	27c0 <nvicSetSystemHandlerPriority>
    CORTEX_PRIORITY_MASK(CORTEX_PRIORITY_SVCALL));
  nvicSetSystemHandlerPriority(HANDLER_PENDSV,
    255e:	f04f 000a 	mov.w	r0, #10
    2562:	f44f 7100 	mov.w	r1, #512	; 0x200
    2566:	f000 f92b 	bl	27c0 <nvicSetSystemHandlerPriority>
    CORTEX_PRIORITY_MASK(CORTEX_PRIORITY_PENDSV));
  nvicSetSystemHandlerPriority(HANDLER_SYSTICK,
    256a:	f04f 000b 	mov.w	r0, #11
    256e:	f04f 0180 	mov.w	r1, #128	; 0x80
    2572:	f000 f925 	bl	27c0 <nvicSetSystemHandlerPriority>
    CORTEX_PRIORITY_MASK(CORTEX_PRIORITY_SYSTICK));
}
    2576:	bd08      	pop	{r3, pc}
    2578:	f3af 8000 	nop.w
    257c:	f3af 8000 	nop.w

00002580 <_port_irq_epilogue>:
#endif

/**
 * @brief   Exception exit redirection to _port_switch_from_isr().
 */
void _port_irq_epilogue(void) {
    2580:	b410      	push	{r4}
    2582:	b083      	sub	sp, #12

  port_lock_from_isr();
    2584:	f04f 0320 	mov.w	r3, #32
    2588:	f383 8811 	msr	BASEPRI, r3
  if ((SCB_ICSR & ICSR_RETTOBASE) != 0) {
    258c:	f44f 436d 	mov.w	r3, #60672	; 0xed00
    2590:	f2ce 0300 	movt	r3, #57344	; 0xe000
    2594:	685b      	ldr	r3, [r3, #4]
    2596:	f403 6300 	and.w	r3, r3, #2048	; 0x800
    259a:	2b00      	cmp	r3, #0
    259c:	d048      	beq.n	2630 <_port_irq_epilogue+0xb0>
    struct extctx *ctxp;

    /* Current PSP value.*/
    asm volatile ("mrs     %0, PSP" : "=r" (ctxp) : : "memory");
    259e:	f3ef 8409 	mrs	r4, PSP
    25a2:	9401      	str	r4, [sp, #4]

    /* Adding an artificial exception return context, there is no need to
       populate it fully.*/
    ctxp--;
    25a4:	9b01      	ldr	r3, [sp, #4]
    25a6:	f1a3 0320 	sub.w	r3, r3, #32
    25aa:	9301      	str	r3, [sp, #4]
    asm volatile ("msr     PSP, %0" : : "r" (ctxp) : "memory");
    25ac:	9b01      	ldr	r3, [sp, #4]
    25ae:	f383 8809 	msr	PSP, r3
    ctxp->xpsr = (regarm_t)0x01000000;
    25b2:	9b01      	ldr	r3, [sp, #4]
    25b4:	f04f 7280 	mov.w	r2, #16777216	; 0x1000000
    25b8:	61da      	str	r2, [r3, #28]

    /* The exit sequence is different depending on if a preemption is
       required or not.*/
    if (chSchIsPreemptionRequired()) {
    25ba:	f240 7308 	movw	r3, #1800	; 0x708
    25be:	f2c2 0300 	movt	r3, #8192	; 0x2000
    25c2:	699b      	ldr	r3, [r3, #24]
    25c4:	7fdb      	ldrb	r3, [r3, #31]
    25c6:	2b00      	cmp	r3, #0
    25c8:	d011      	beq.n	25ee <_port_irq_epilogue+0x6e>
    25ca:	f240 7308 	movw	r3, #1800	; 0x708
    25ce:	f2c2 0300 	movt	r3, #8192	; 0x2000
    25d2:	681b      	ldr	r3, [r3, #0]
    25d4:	689a      	ldr	r2, [r3, #8]
    25d6:	f240 7308 	movw	r3, #1800	; 0x708
    25da:	f2c2 0300 	movt	r3, #8192	; 0x2000
    25de:	699b      	ldr	r3, [r3, #24]
    25e0:	689b      	ldr	r3, [r3, #8]
    25e2:	429a      	cmp	r2, r3
    25e4:	bf94      	ite	ls
    25e6:	2300      	movls	r3, #0
    25e8:	2301      	movhi	r3, #1
    25ea:	b2db      	uxtb	r3, r3
    25ec:	e010      	b.n	2610 <_port_irq_epilogue+0x90>
    25ee:	f240 7308 	movw	r3, #1800	; 0x708
    25f2:	f2c2 0300 	movt	r3, #8192	; 0x2000
    25f6:	681b      	ldr	r3, [r3, #0]
    25f8:	689a      	ldr	r2, [r3, #8]
    25fa:	f240 7308 	movw	r3, #1800	; 0x708
    25fe:	f2c2 0300 	movt	r3, #8192	; 0x2000
    2602:	699b      	ldr	r3, [r3, #24]
    2604:	689b      	ldr	r3, [r3, #8]
    2606:	429a      	cmp	r2, r3
    2608:	bf34      	ite	cc
    260a:	2300      	movcc	r3, #0
    260c:	2301      	movcs	r3, #1
    260e:	b2db      	uxtb	r3, r3
    2610:	2b00      	cmp	r3, #0
    2612:	d006      	beq.n	2622 <_port_irq_epilogue+0xa2>
      /* Preemption is required we need to enforce a context switch.*/
      ctxp->pc = (void *)_port_switch_from_isr;
    2614:	9a01      	ldr	r2, [sp, #4]
    2616:	f242 6341 	movw	r3, #9793	; 0x2641
    261a:	f2c0 0300 	movt	r3, #0
    261e:	6193      	str	r3, [r2, #24]
    }
#endif

    /* Note, returning without unlocking is intentional, this is done in
       order to keep the rest of the context switching atomic.*/
    return;
    2620:	e00a      	b.n	2638 <_port_irq_epilogue+0xb8>
#endif
    }
    else {
      /* Preemption not required, we just need to exit the exception
         atomically.*/
      ctxp->pc = (void *)_port_exit_from_isr;
    2622:	9a01      	ldr	r2, [sp, #4]
    2624:	f242 6344 	movw	r3, #9796	; 0x2644
    2628:	f2c0 0300 	movt	r3, #0
    262c:	6193      	str	r3, [r2, #24]
    }
#endif

    /* Note, returning without unlocking is intentional, this is done in
       order to keep the rest of the context switching atomic.*/
    return;
    262e:	e003      	b.n	2638 <_port_irq_epilogue+0xb8>
  }
  port_unlock_from_isr();
    2630:	f04f 0300 	mov.w	r3, #0
    2634:	f383 8811 	msr	BASEPRI, r3
}
    2638:	b003      	add	sp, #12
    263a:	bc10      	pop	{r4}
    263c:	4770      	bx	lr
    263e:	bf00      	nop

00002640 <_port_switch_from_isr>:
__attribute__((naked))
#endif
void _port_switch_from_isr(void) {

  dbg_check_lock();
  chSchDoReschedule();
    2640:	f7ff f9be 	bl	19c0 <chSchDoReschedule>

00002644 <_port_exit_from_isr>:
  dbg_check_unlock();
  asm volatile ("_port_exit_from_isr:" : : : "memory");
#if !CORTEX_SIMPLIFIED_PRIORITY || defined(__DOXYGEN__)
  asm volatile ("svc     #0");
    2644:	df00      	svc	0
    2646:	bf00      	nop
    2648:	f3af 8000 	nop.w
    264c:	f3af 8000 	nop.w

00002650 <_port_switch>:
 * @param[in] otp       the thread to be switched out
 */
#if !defined(__DOXYGEN__)
__attribute__((naked))
#endif
void _port_switch(Thread *ntp, Thread *otp) {
    2650:	4603      	mov	r3, r0
    2652:	460a      	mov	r2, r1

  asm volatile ("push    {r4, r5, r6, r7, r8, r9, r10, r11, lr}"
    2654:	e92d 4ff0 	stmdb	sp!, {r4, r5, r6, r7, r8, r9, sl, fp, lr}
                : : : "memory");
#if CORTEX_USE_FPU
  asm volatile ("vpush   {s16-s31}" : : : "memory");
#endif

  asm volatile ("str     sp, [%1, #12]                          \n\t"
    2658:	f8c2 d00c 	str.w	sp, [r2, #12]
    265c:	f8d3 d00c 	ldr.w	sp, [r3, #12]
                "ldr     sp, [%0, #12]" : : "r" (ntp), "r" (otp));

#if CORTEX_USE_FPU
  asm volatile ("vpop    {s16-s31}" : : : "memory");
#endif
  asm volatile ("pop     {r4, r5, r6, r7, r8, r9, r10, r11, pc}"
    2660:	e8bd 8ff0 	ldmia.w	sp!, {r4, r5, r6, r7, r8, r9, sl, fp, pc}
    2664:	f3af 8000 	nop.w
    2668:	f3af 8000 	nop.w
    266c:	f3af 8000 	nop.w

00002670 <_port_thread_start>:
 * @details If the work function returns @p chThdExit() is automatically
 *          invoked.
 */
void _port_thread_start(void) {

  chSysUnlock();
    2670:	f04f 0300 	mov.w	r3, #0
    2674:	f383 8811 	msr	BASEPRI, r3
  asm volatile ("mov     r0, r5                                 \n\t"
    2678:	4628      	mov	r0, r5
    267a:	47a0      	blx	r4
    267c:	f7ff fb48 	bl	1d10 <chThdExit>
                "blx     r4                                     \n\t"
                "bl      chThdExit");
}
    2680:	4770      	bx	lr
    2682:	bf00      	nop
    2684:	f3af 8000 	nop.w
    2688:	f3af 8000 	nop.w
    268c:	f3af 8000 	nop.w

00002690 <nvicEnableVector>:
 * @note    The parameters are not tested for correctness.
 *
 * @param[in] n         the interrupt number
 * @param[in] prio      the interrupt priority mask
 */
void nvicEnableVector(uint32_t n, uint32_t prio) {
    2690:	b410      	push	{r4}
    2692:	b085      	sub	sp, #20
    2694:	9001      	str	r0, [sp, #4]
    2696:	9100      	str	r1, [sp, #0]
  unsigned sh = (n & 3) << 3;
    2698:	9b01      	ldr	r3, [sp, #4]
    269a:	f003 0303 	and.w	r3, r3, #3
    269e:	ea4f 03c3 	mov.w	r3, r3, lsl #3
    26a2:	9303      	str	r3, [sp, #12]

  NVIC_IPR(n >> 2) = (NVIC_IPR(n >> 2) & ~(0xFF << sh)) | (prio << sh);
    26a4:	f44f 4361 	mov.w	r3, #57600	; 0xe100
    26a8:	f2ce 0300 	movt	r3, #57344	; 0xe000
    26ac:	9a01      	ldr	r2, [sp, #4]
    26ae:	ea4f 0092 	mov.w	r0, r2, lsr #2
    26b2:	f44f 4261 	mov.w	r2, #57600	; 0xe100
    26b6:	f2ce 0200 	movt	r2, #57344	; 0xe000
    26ba:	9901      	ldr	r1, [sp, #4]
    26bc:	ea4f 0191 	mov.w	r1, r1, lsr #2
    26c0:	f101 01c0 	add.w	r1, r1, #192	; 0xc0
    26c4:	f852 1021 	ldr.w	r1, [r2, r1, lsl #2]
    26c8:	9a03      	ldr	r2, [sp, #12]
    26ca:	f04f 04ff 	mov.w	r4, #255	; 0xff
    26ce:	fa04 f202 	lsl.w	r2, r4, r2
    26d2:	ea6f 0202 	mvn.w	r2, r2
    26d6:	4011      	ands	r1, r2
    26d8:	9a03      	ldr	r2, [sp, #12]
    26da:	9c00      	ldr	r4, [sp, #0]
    26dc:	fa04 f202 	lsl.w	r2, r4, r2
    26e0:	4311      	orrs	r1, r2
    26e2:	f100 02c0 	add.w	r2, r0, #192	; 0xc0
    26e6:	f843 1022 	str.w	r1, [r3, r2, lsl #2]
  NVIC_ICPR(n >> 5) = 1 << (n & 0x1F);
    26ea:	f44f 4361 	mov.w	r3, #57600	; 0xe100
    26ee:	f2ce 0300 	movt	r3, #57344	; 0xe000
    26f2:	9a01      	ldr	r2, [sp, #4]
    26f4:	ea4f 1252 	mov.w	r2, r2, lsr #5
    26f8:	9901      	ldr	r1, [sp, #4]
    26fa:	f001 011f 	and.w	r1, r1, #31
    26fe:	f04f 0001 	mov.w	r0, #1
    2702:	fa00 f101 	lsl.w	r1, r0, r1
    2706:	f102 0260 	add.w	r2, r2, #96	; 0x60
    270a:	f843 1022 	str.w	r1, [r3, r2, lsl #2]
  NVIC_ISER(n >> 5) = 1 << (n & 0x1F);
    270e:	f44f 4361 	mov.w	r3, #57600	; 0xe100
    2712:	f2ce 0300 	movt	r3, #57344	; 0xe000
    2716:	9a01      	ldr	r2, [sp, #4]
    2718:	ea4f 1252 	mov.w	r2, r2, lsr #5
    271c:	9901      	ldr	r1, [sp, #4]
    271e:	f001 011f 	and.w	r1, r1, #31
    2722:	f04f 0001 	mov.w	r0, #1
    2726:	fa00 f101 	lsl.w	r1, r0, r1
    272a:	f843 1022 	str.w	r1, [r3, r2, lsl #2]
}
    272e:	b005      	add	sp, #20
    2730:	bc10      	pop	{r4}
    2732:	4770      	bx	lr
    2734:	f3af 8000 	nop.w
    2738:	f3af 8000 	nop.w
    273c:	f3af 8000 	nop.w

00002740 <nvicDisableVector>:
 * @brief   Disables an interrupt handler.
 * @note    The parameters are not tested for correctness.
 *
 * @param[in] n         the interrupt number
 */
void nvicDisableVector(uint32_t n) {
    2740:	b410      	push	{r4}
    2742:	b085      	sub	sp, #20
    2744:	9001      	str	r0, [sp, #4]
  unsigned sh = (n & 3) << 3;
    2746:	9b01      	ldr	r3, [sp, #4]
    2748:	f003 0303 	and.w	r3, r3, #3
    274c:	ea4f 03c3 	mov.w	r3, r3, lsl #3
    2750:	9303      	str	r3, [sp, #12]

  NVIC_ICER(n >> 5) = 1 << (n & 0x1F);
    2752:	f44f 4361 	mov.w	r3, #57600	; 0xe100
    2756:	f2ce 0300 	movt	r3, #57344	; 0xe000
    275a:	9a01      	ldr	r2, [sp, #4]
    275c:	ea4f 1252 	mov.w	r2, r2, lsr #5
    2760:	9901      	ldr	r1, [sp, #4]
    2762:	f001 011f 	and.w	r1, r1, #31
    2766:	f04f 0001 	mov.w	r0, #1
    276a:	fa00 f101 	lsl.w	r1, r0, r1
    276e:	f102 0220 	add.w	r2, r2, #32
    2772:	f843 1022 	str.w	r1, [r3, r2, lsl #2]
  NVIC_IPR(n >> 2) = NVIC_IPR(n >> 2) & ~(0xFF << sh);
    2776:	f44f 4361 	mov.w	r3, #57600	; 0xe100
    277a:	f2ce 0300 	movt	r3, #57344	; 0xe000
    277e:	9a01      	ldr	r2, [sp, #4]
    2780:	ea4f 0092 	mov.w	r0, r2, lsr #2
    2784:	f44f 4261 	mov.w	r2, #57600	; 0xe100
    2788:	f2ce 0200 	movt	r2, #57344	; 0xe000
    278c:	9901      	ldr	r1, [sp, #4]
    278e:	ea4f 0191 	mov.w	r1, r1, lsr #2
    2792:	f101 01c0 	add.w	r1, r1, #192	; 0xc0
    2796:	f852 1021 	ldr.w	r1, [r2, r1, lsl #2]
    279a:	9a03      	ldr	r2, [sp, #12]
    279c:	f04f 04ff 	mov.w	r4, #255	; 0xff
    27a0:	fa04 f202 	lsl.w	r2, r4, r2
    27a4:	ea6f 0202 	mvn.w	r2, r2
    27a8:	4011      	ands	r1, r2
    27aa:	f100 02c0 	add.w	r2, r0, #192	; 0xc0
    27ae:	f843 1022 	str.w	r1, [r3, r2, lsl #2]
}
    27b2:	b005      	add	sp, #20
    27b4:	bc10      	pop	{r4}
    27b6:	4770      	bx	lr
    27b8:	f3af 8000 	nop.w
    27bc:	f3af 8000 	nop.w

000027c0 <nvicSetSystemHandlerPriority>:
 * @note    The parameters are not tested for correctness.
 *
 * @param[in] handler   the system handler number
 * @param[in] prio      the system handler priority mask
 */
void nvicSetSystemHandlerPriority(uint32_t handler, uint32_t prio) {
    27c0:	b410      	push	{r4}
    27c2:	b085      	sub	sp, #20
    27c4:	9001      	str	r0, [sp, #4]
    27c6:	9100      	str	r1, [sp, #0]
  unsigned sh = (handler & 3) * 8;
    27c8:	9b01      	ldr	r3, [sp, #4]
    27ca:	f003 0303 	and.w	r3, r3, #3
    27ce:	ea4f 03c3 	mov.w	r3, r3, lsl #3
    27d2:	9303      	str	r3, [sp, #12]

  SCB_SHPR(handler >> 2) = (SCB_SHPR(handler >> 2) &
    27d4:	f44f 436d 	mov.w	r3, #60672	; 0xed00
    27d8:	f2ce 0300 	movt	r3, #57344	; 0xe000
    27dc:	9a01      	ldr	r2, [sp, #4]
    27de:	ea4f 0092 	mov.w	r0, r2, lsr #2
    27e2:	f44f 426d 	mov.w	r2, #60672	; 0xed00
    27e6:	f2ce 0200 	movt	r2, #57344	; 0xe000
    27ea:	9901      	ldr	r1, [sp, #4]
    27ec:	ea4f 0191 	mov.w	r1, r1, lsr #2
    27f0:	f101 0106 	add.w	r1, r1, #6
    27f4:	f852 1021 	ldr.w	r1, [r2, r1, lsl #2]
                           ~(0xFF << sh)) | (prio << sh);
    27f8:	9a03      	ldr	r2, [sp, #12]
    27fa:	f04f 04ff 	mov.w	r4, #255	; 0xff
    27fe:	fa04 f202 	lsl.w	r2, r4, r2
    2802:	ea6f 0202 	mvn.w	r2, r2
 * @param[in] prio      the system handler priority mask
 */
void nvicSetSystemHandlerPriority(uint32_t handler, uint32_t prio) {
  unsigned sh = (handler & 3) * 8;

  SCB_SHPR(handler >> 2) = (SCB_SHPR(handler >> 2) &
    2806:	4011      	ands	r1, r2
                           ~(0xFF << sh)) | (prio << sh);
    2808:	9a03      	ldr	r2, [sp, #12]
    280a:	9c00      	ldr	r4, [sp, #0]
    280c:	fa04 f202 	lsl.w	r2, r4, r2
    2810:	4311      	orrs	r1, r2
 * @param[in] prio      the system handler priority mask
 */
void nvicSetSystemHandlerPriority(uint32_t handler, uint32_t prio) {
  unsigned sh = (handler & 3) * 8;

  SCB_SHPR(handler >> 2) = (SCB_SHPR(handler >> 2) &
    2812:	f100 0206 	add.w	r2, r0, #6
    2816:	f843 1022 	str.w	r1, [r3, r2, lsl #2]
                           ~(0xFF << sh)) | (prio << sh);
}
    281a:	b005      	add	sp, #20
    281c:	bc10      	pop	{r4}
    281e:	4770      	bx	lr

00002820 <prio_insert>:
#define _CHINLINE_H_

/* If the performance code path has been chosen then all the following
   functions are inlined into the various kernel modules.*/
#if CH_OPTIMIZE_SPEED
static INLINE void prio_insert(Thread *tp, ThreadsQueue *tqp) {
    2820:	b084      	sub	sp, #16
    2822:	9001      	str	r0, [sp, #4]
    2824:	9100      	str	r1, [sp, #0]

  Thread *cp = (Thread *)tqp;
    2826:	9b00      	ldr	r3, [sp, #0]
    2828:	9303      	str	r3, [sp, #12]
  do {
    cp = cp->p_next;
    282a:	9b03      	ldr	r3, [sp, #12]
    282c:	681b      	ldr	r3, [r3, #0]
    282e:	9303      	str	r3, [sp, #12]
  } while ((cp != (Thread *)tqp) && (cp->p_prio >= tp->p_prio));
    2830:	9a03      	ldr	r2, [sp, #12]
    2832:	9b00      	ldr	r3, [sp, #0]
    2834:	429a      	cmp	r2, r3
    2836:	d005      	beq.n	2844 <prio_insert+0x24>
    2838:	9b03      	ldr	r3, [sp, #12]
    283a:	689a      	ldr	r2, [r3, #8]
    283c:	9b01      	ldr	r3, [sp, #4]
    283e:	689b      	ldr	r3, [r3, #8]
    2840:	429a      	cmp	r2, r3
    2842:	d2f2      	bcs.n	282a <prio_insert+0xa>
  tp->p_next = cp;
    2844:	9b01      	ldr	r3, [sp, #4]
    2846:	9a03      	ldr	r2, [sp, #12]
    2848:	601a      	str	r2, [r3, #0]
  tp->p_prev = cp->p_prev;
    284a:	9b03      	ldr	r3, [sp, #12]
    284c:	685a      	ldr	r2, [r3, #4]
    284e:	9b01      	ldr	r3, [sp, #4]
    2850:	605a      	str	r2, [r3, #4]
  tp->p_prev->p_next = cp->p_prev = tp;
    2852:	9b01      	ldr	r3, [sp, #4]
    2854:	685b      	ldr	r3, [r3, #4]
    2856:	9a03      	ldr	r2, [sp, #12]
    2858:	9901      	ldr	r1, [sp, #4]
    285a:	6051      	str	r1, [r2, #4]
    285c:	9a03      	ldr	r2, [sp, #12]
    285e:	6852      	ldr	r2, [r2, #4]
    2860:	601a      	str	r2, [r3, #0]
}
    2862:	b004      	add	sp, #16
    2864:	4770      	bx	lr
    2866:	bf00      	nop
    2868:	f3af 8000 	nop.w
    286c:	f3af 8000 	nop.w

00002870 <fifo_remove>:
  tp->p_next = (Thread *)tqp;
  tp->p_prev = tqp->p_prev;
  tp->p_prev->p_next = tqp->p_prev = tp;
}

static INLINE Thread *fifo_remove(ThreadsQueue *tqp) {
    2870:	b084      	sub	sp, #16
    2872:	9001      	str	r0, [sp, #4]
  Thread *tp = tqp->p_next;
    2874:	9b01      	ldr	r3, [sp, #4]
    2876:	681b      	ldr	r3, [r3, #0]
    2878:	9303      	str	r3, [sp, #12]

  (tqp->p_next = tp->p_next)->p_prev = (Thread *)tqp;
    287a:	9b03      	ldr	r3, [sp, #12]
    287c:	681a      	ldr	r2, [r3, #0]
    287e:	9b01      	ldr	r3, [sp, #4]
    2880:	601a      	str	r2, [r3, #0]
    2882:	9b01      	ldr	r3, [sp, #4]
    2884:	681b      	ldr	r3, [r3, #0]
    2886:	9a01      	ldr	r2, [sp, #4]
    2888:	605a      	str	r2, [r3, #4]
  return tp;
    288a:	9b03      	ldr	r3, [sp, #12]
}
    288c:	4618      	mov	r0, r3
    288e:	b004      	add	sp, #16
    2890:	4770      	bx	lr
    2892:	bf00      	nop
    2894:	f3af 8000 	nop.w
    2898:	f3af 8000 	nop.w
    289c:	f3af 8000 	nop.w

000028a0 <dequeue>:

  (tqp->p_prev = tp->p_prev)->p_next = (Thread *)tqp;
  return tp;
}

static INLINE Thread *dequeue(Thread *tp) {
    28a0:	b082      	sub	sp, #8
    28a2:	9001      	str	r0, [sp, #4]

  tp->p_prev->p_next = tp->p_next;
    28a4:	9b01      	ldr	r3, [sp, #4]
    28a6:	685b      	ldr	r3, [r3, #4]
    28a8:	9a01      	ldr	r2, [sp, #4]
    28aa:	6812      	ldr	r2, [r2, #0]
    28ac:	601a      	str	r2, [r3, #0]
  tp->p_next->p_prev = tp->p_prev;
    28ae:	9b01      	ldr	r3, [sp, #4]
    28b0:	681b      	ldr	r3, [r3, #0]
    28b2:	9a01      	ldr	r2, [sp, #4]
    28b4:	6852      	ldr	r2, [r2, #4]
    28b6:	605a      	str	r2, [r3, #4]
  return tp;
    28b8:	9b01      	ldr	r3, [sp, #4]
}
    28ba:	4618      	mov	r0, r3
    28bc:	b002      	add	sp, #8
    28be:	4770      	bx	lr

000028c0 <chMtxInit>:
 *
 * @param[out] mp       pointer to a @p Mutex structure
 *
 * @init
 */
void chMtxInit(Mutex *mp) {
    28c0:	b082      	sub	sp, #8
    28c2:	9001      	str	r0, [sp, #4]

  chDbgCheck(mp != NULL, "chMtxInit");

  queue_init(&mp->m_queue);
    28c4:	9a01      	ldr	r2, [sp, #4]
    28c6:	9b01      	ldr	r3, [sp, #4]
    28c8:	605a      	str	r2, [r3, #4]
    28ca:	9b01      	ldr	r3, [sp, #4]
    28cc:	685a      	ldr	r2, [r3, #4]
    28ce:	9b01      	ldr	r3, [sp, #4]
    28d0:	601a      	str	r2, [r3, #0]
  mp->m_owner = NULL;
    28d2:	9b01      	ldr	r3, [sp, #4]
    28d4:	f04f 0200 	mov.w	r2, #0
    28d8:	609a      	str	r2, [r3, #8]
}
    28da:	b002      	add	sp, #8
    28dc:	4770      	bx	lr
    28de:	bf00      	nop

000028e0 <chMtxLock>:
 *
 * @param[in] mp        pointer to the @p Mutex structure
 *
 * @api
 */
void chMtxLock(Mutex *mp) {
    28e0:	b500      	push	{lr}
    28e2:	b083      	sub	sp, #12
    28e4:	9001      	str	r0, [sp, #4]

  chSysLock();
    28e6:	f04f 0320 	mov.w	r3, #32
    28ea:	f383 8811 	msr	BASEPRI, r3

  chMtxLockS(mp);
    28ee:	9801      	ldr	r0, [sp, #4]
    28f0:	f000 f806 	bl	2900 <chMtxLockS>

  chSysUnlock();
    28f4:	f04f 0300 	mov.w	r3, #0
    28f8:	f383 8811 	msr	BASEPRI, r3
}
    28fc:	b003      	add	sp, #12
    28fe:	bd00      	pop	{pc}

00002900 <chMtxLockS>:
 *
 * @param[in] mp        pointer to the @p Mutex structure
 *
 * @sclass
 */
void chMtxLockS(Mutex *mp) {
    2900:	b500      	push	{lr}
    2902:	b085      	sub	sp, #20
    2904:	9001      	str	r0, [sp, #4]
  Thread *ctp = currp;
    2906:	f240 7308 	movw	r3, #1800	; 0x708
    290a:	f2c2 0300 	movt	r3, #8192	; 0x2000
    290e:	699b      	ldr	r3, [r3, #24]
    2910:	9302      	str	r3, [sp, #8]

  chDbgCheckClassS();
  chDbgCheck(mp != NULL, "chMtxLockS");

  /* Is the mutex already locked? */
  if (mp->m_owner != NULL) {
    2912:	9b01      	ldr	r3, [sp, #4]
    2914:	689b      	ldr	r3, [r3, #8]
    2916:	2b00      	cmp	r3, #0
    2918:	d046      	beq.n	29a8 <chMtxLockS+0xa8>
    /* Priority inheritance protocol; explores the thread-mutex dependencies
       boosting the priority of all the affected threads to equal the priority
       of the running thread requesting the mutex.*/
    Thread *tp = mp->m_owner;
    291a:	9b01      	ldr	r3, [sp, #4]
    291c:	689b      	ldr	r3, [r3, #8]
    291e:	9303      	str	r3, [sp, #12]
    /* Does the running thread have higher priority than the mutex
       owning thread? */
    while (tp->p_prio < ctp->p_prio) {
    2920:	e02f      	b.n	2982 <chMtxLockS+0x82>
      /* Make priority of thread tp match the running thread's priority.*/
      tp->p_prio = ctp->p_prio;
    2922:	9b02      	ldr	r3, [sp, #8]
    2924:	689a      	ldr	r2, [r3, #8]
    2926:	9b03      	ldr	r3, [sp, #12]
    2928:	609a      	str	r2, [r3, #8]
      /* The following states need priority queues reordering.*/
      switch (tp->p_state) {
    292a:	9b03      	ldr	r3, [sp, #12]
    292c:	7f1b      	ldrb	r3, [r3, #28]
    292e:	2b04      	cmp	r3, #4
    2930:	d004      	beq.n	293c <chMtxLockS+0x3c>
    2932:	2b05      	cmp	r3, #5
    2934:	d011      	beq.n	295a <chMtxLockS+0x5a>
    2936:	2b00      	cmp	r3, #0
    2938:	d01a      	beq.n	2970 <chMtxLockS+0x70>
    293a:	e021      	b.n	2980 <chMtxLockS+0x80>
      case THD_STATE_WTMTX:
        /* Re-enqueues the mutex owner with its new priority.*/
        prio_insert(dequeue(tp), (ThreadsQueue *)tp->p_u.wtobjp);
    293c:	9803      	ldr	r0, [sp, #12]
    293e:	f7ff ffaf 	bl	28a0 <dequeue>
    2942:	4602      	mov	r2, r0
    2944:	9b03      	ldr	r3, [sp, #12]
    2946:	6a5b      	ldr	r3, [r3, #36]	; 0x24
    2948:	4610      	mov	r0, r2
    294a:	4619      	mov	r1, r3
    294c:	f7ff ff68 	bl	2820 <prio_insert>
        tp = ((Mutex *)tp->p_u.wtobjp)->m_owner;
    2950:	9b03      	ldr	r3, [sp, #12]
    2952:	6a5b      	ldr	r3, [r3, #36]	; 0x24
    2954:	689b      	ldr	r3, [r3, #8]
    2956:	9303      	str	r3, [sp, #12]
        continue;
    2958:	e013      	b.n	2982 <chMtxLockS+0x82>
#endif
#if CH_USE_MESSAGES && CH_USE_MESSAGES_PRIORITY
      case THD_STATE_SNDMSGQ:
#endif
        /* Re-enqueues tp with its new priority on the queue.*/
        prio_insert(dequeue(tp), (ThreadsQueue *)tp->p_u.wtobjp);
    295a:	9803      	ldr	r0, [sp, #12]
    295c:	f7ff ffa0 	bl	28a0 <dequeue>
    2960:	4602      	mov	r2, r0
    2962:	9b03      	ldr	r3, [sp, #12]
    2964:	6a5b      	ldr	r3, [r3, #36]	; 0x24
    2966:	4610      	mov	r0, r2
    2968:	4619      	mov	r1, r3
    296a:	f7ff ff59 	bl	2820 <prio_insert>
        break;
    296e:	e007      	b.n	2980 <chMtxLockS+0x80>
#if CH_DBG_ENABLE_ASSERTS
        /* Prevents an assertion in chSchReadyI().*/
        tp->p_state = THD_STATE_CURRENT;
#endif
        /* Re-enqueues tp with its new priority on the ready list.*/
        chSchReadyI(dequeue(tp));
    2970:	9803      	ldr	r0, [sp, #12]
    2972:	f7ff ff95 	bl	28a0 <dequeue>
    2976:	4603      	mov	r3, r0
    2978:	4618      	mov	r0, r3
    297a:	f7fe fe79 	bl	1670 <chSchReadyI>
        break;
    297e:	bf00      	nop
      }
      break;
    2980:	e005      	b.n	298e <chMtxLockS+0x8e>
       boosting the priority of all the affected threads to equal the priority
       of the running thread requesting the mutex.*/
    Thread *tp = mp->m_owner;
    /* Does the running thread have higher priority than the mutex
       owning thread? */
    while (tp->p_prio < ctp->p_prio) {
    2982:	9b03      	ldr	r3, [sp, #12]
    2984:	689a      	ldr	r2, [r3, #8]
    2986:	9b02      	ldr	r3, [sp, #8]
    2988:	689b      	ldr	r3, [r3, #8]
    298a:	429a      	cmp	r2, r3
    298c:	d3c9      	bcc.n	2922 <chMtxLockS+0x22>
        break;
      }
      break;
    }
    /* Sleep on the mutex.*/
    prio_insert(ctp, &mp->m_queue);
    298e:	9b01      	ldr	r3, [sp, #4]
    2990:	9802      	ldr	r0, [sp, #8]
    2992:	4619      	mov	r1, r3
    2994:	f7ff ff44 	bl	2820 <prio_insert>
    ctp->p_u.wtobjp = mp;
    2998:	9b02      	ldr	r3, [sp, #8]
    299a:	9a01      	ldr	r2, [sp, #4]
    299c:	625a      	str	r2, [r3, #36]	; 0x24
    chSchGoSleepS(THD_STATE_WTMTX);
    299e:	f04f 0004 	mov.w	r0, #4
    29a2:	f7fe fe95 	bl	16d0 <chSchGoSleepS>
    29a6:	e009      	b.n	29bc <chMtxLockS+0xbc>
    chDbgAssert(mp->m_owner == ctp, "chMtxLockS(), #1", "not owner");
    chDbgAssert(ctp->p_mtxlist == mp, "chMtxLockS(), #2", "not owned");
  }
  else {
    /* It was not owned, inserted in the owned mutexes list.*/
    mp->m_owner = ctp;
    29a8:	9b01      	ldr	r3, [sp, #4]
    29aa:	9a02      	ldr	r2, [sp, #8]
    29ac:	609a      	str	r2, [r3, #8]
    mp->m_next = ctp->p_mtxlist;
    29ae:	9b02      	ldr	r3, [sp, #8]
    29b0:	6bda      	ldr	r2, [r3, #60]	; 0x3c
    29b2:	9b01      	ldr	r3, [sp, #4]
    29b4:	60da      	str	r2, [r3, #12]
    ctp->p_mtxlist = mp;
    29b6:	9b02      	ldr	r3, [sp, #8]
    29b8:	9a01      	ldr	r2, [sp, #4]
    29ba:	63da      	str	r2, [r3, #60]	; 0x3c
  }
}
    29bc:	b005      	add	sp, #20
    29be:	bd00      	pop	{pc}

000029c0 <chMtxTryLock>:
 * @retval TRUE         if the mutex has been successfully acquired
 * @retval FALSE        if the lock attempt failed.
 *
 * @api
 */
bool_t chMtxTryLock(Mutex *mp) {
    29c0:	b500      	push	{lr}
    29c2:	b085      	sub	sp, #20
    29c4:	9001      	str	r0, [sp, #4]
  bool_t b;

  chSysLock();
    29c6:	f04f 0320 	mov.w	r3, #32
    29ca:	f383 8811 	msr	BASEPRI, r3

  b = chMtxTryLockS(mp);
    29ce:	9801      	ldr	r0, [sp, #4]
    29d0:	f000 f80e 	bl	29f0 <chMtxTryLockS>
    29d4:	9003      	str	r0, [sp, #12]

  chSysUnlock();
    29d6:	f04f 0300 	mov.w	r3, #0
    29da:	f383 8811 	msr	BASEPRI, r3
  return b;
    29de:	9b03      	ldr	r3, [sp, #12]
}
    29e0:	4618      	mov	r0, r3
    29e2:	b005      	add	sp, #20
    29e4:	bd00      	pop	{pc}
    29e6:	bf00      	nop
    29e8:	f3af 8000 	nop.w
    29ec:	f3af 8000 	nop.w

000029f0 <chMtxTryLockS>:
 * @retval TRUE         if the mutex has been successfully acquired
 * @retval FALSE        if the lock attempt failed.
 *
 * @sclass
 */
bool_t chMtxTryLockS(Mutex *mp) {
    29f0:	b082      	sub	sp, #8
    29f2:	9001      	str	r0, [sp, #4]

  chDbgCheckClassS();
  chDbgCheck(mp != NULL, "chMtxTryLockS");

  if (mp->m_owner != NULL)
    29f4:	9b01      	ldr	r3, [sp, #4]
    29f6:	689b      	ldr	r3, [r3, #8]
    29f8:	2b00      	cmp	r3, #0
    29fa:	d002      	beq.n	2a02 <chMtxTryLockS+0x12>
    return FALSE;
    29fc:	f04f 0300 	mov.w	r3, #0
    2a00:	e017      	b.n	2a32 <chMtxTryLockS+0x42>
  mp->m_owner = currp;
    2a02:	f240 7308 	movw	r3, #1800	; 0x708
    2a06:	f2c2 0300 	movt	r3, #8192	; 0x2000
    2a0a:	699a      	ldr	r2, [r3, #24]
    2a0c:	9b01      	ldr	r3, [sp, #4]
    2a0e:	609a      	str	r2, [r3, #8]
  mp->m_next = currp->p_mtxlist;
    2a10:	f240 7308 	movw	r3, #1800	; 0x708
    2a14:	f2c2 0300 	movt	r3, #8192	; 0x2000
    2a18:	699b      	ldr	r3, [r3, #24]
    2a1a:	6bda      	ldr	r2, [r3, #60]	; 0x3c
    2a1c:	9b01      	ldr	r3, [sp, #4]
    2a1e:	60da      	str	r2, [r3, #12]
  currp->p_mtxlist = mp;
    2a20:	f240 7308 	movw	r3, #1800	; 0x708
    2a24:	f2c2 0300 	movt	r3, #8192	; 0x2000
    2a28:	699b      	ldr	r3, [r3, #24]
    2a2a:	9a01      	ldr	r2, [sp, #4]
    2a2c:	63da      	str	r2, [r3, #60]	; 0x3c
  return TRUE;
    2a2e:	f04f 0301 	mov.w	r3, #1
}
    2a32:	4618      	mov	r0, r3
    2a34:	b002      	add	sp, #8
    2a36:	4770      	bx	lr
    2a38:	f3af 8000 	nop.w
    2a3c:	f3af 8000 	nop.w

00002a40 <chMtxUnlock>:
 *
 * @return              A pointer to the unlocked mutex.
 *
 * @api
 */
Mutex *chMtxUnlock(void) {
    2a40:	b500      	push	{lr}
    2a42:	b087      	sub	sp, #28
  Thread *ctp = currp;
    2a44:	f240 7308 	movw	r3, #1800	; 0x708
    2a48:	f2c2 0300 	movt	r3, #8192	; 0x2000
    2a4c:	699b      	ldr	r3, [r3, #24]
    2a4e:	9303      	str	r3, [sp, #12]
  Mutex *ump, *mp;

  chSysLock();
    2a50:	f04f 0320 	mov.w	r3, #32
    2a54:	f383 8811 	msr	BASEPRI, r3
  chDbgAssert(ctp->p_mtxlist->m_owner == ctp,
              "chMtxUnlock(), #2",
              "ownership failure");
  /* Removes the top Mutex from the Thread's owned mutexes list and marks it
     as not owned.*/
  ump = ctp->p_mtxlist;
    2a58:	9b03      	ldr	r3, [sp, #12]
    2a5a:	6bdb      	ldr	r3, [r3, #60]	; 0x3c
    2a5c:	9302      	str	r3, [sp, #8]
  ctp->p_mtxlist = ump->m_next;
    2a5e:	9b02      	ldr	r3, [sp, #8]
    2a60:	68da      	ldr	r2, [r3, #12]
    2a62:	9b03      	ldr	r3, [sp, #12]
    2a64:	63da      	str	r2, [r3, #60]	; 0x3c
  /* If a thread is waiting on the mutex then the fun part begins.*/
  if (chMtxQueueNotEmptyS(ump)) {
    2a66:	9b02      	ldr	r3, [sp, #8]
    2a68:	681a      	ldr	r2, [r3, #0]
    2a6a:	9b02      	ldr	r3, [sp, #8]
    2a6c:	429a      	cmp	r2, r3
    2a6e:	d033      	beq.n	2ad8 <chMtxUnlock+0x98>
    Thread *tp;

    /* Recalculates the optimal thread priority by scanning the owned
       mutexes list.*/
    tprio_t newprio = ctp->p_realprio;
    2a70:	9b03      	ldr	r3, [sp, #12]
    2a72:	6c1b      	ldr	r3, [r3, #64]	; 0x40
    2a74:	9304      	str	r3, [sp, #16]
    mp = ctp->p_mtxlist;
    2a76:	9b03      	ldr	r3, [sp, #12]
    2a78:	6bdb      	ldr	r3, [r3, #60]	; 0x3c
    2a7a:	9305      	str	r3, [sp, #20]
    while (mp != NULL) {
    2a7c:	e011      	b.n	2aa2 <chMtxUnlock+0x62>
      /* If the highest priority thread waiting in the mutexes list has a
         greater priority than the current thread base priority then the final
         priority will have at least that priority.*/
      if (chMtxQueueNotEmptyS(mp) && (mp->m_queue.p_next->p_prio > newprio))
    2a7e:	9b05      	ldr	r3, [sp, #20]
    2a80:	681a      	ldr	r2, [r3, #0]
    2a82:	9b05      	ldr	r3, [sp, #20]
    2a84:	429a      	cmp	r2, r3
    2a86:	d009      	beq.n	2a9c <chMtxUnlock+0x5c>
    2a88:	9b05      	ldr	r3, [sp, #20]
    2a8a:	681b      	ldr	r3, [r3, #0]
    2a8c:	689a      	ldr	r2, [r3, #8]
    2a8e:	9b04      	ldr	r3, [sp, #16]
    2a90:	429a      	cmp	r2, r3
    2a92:	d903      	bls.n	2a9c <chMtxUnlock+0x5c>
        newprio = mp->m_queue.p_next->p_prio;
    2a94:	9b05      	ldr	r3, [sp, #20]
    2a96:	681b      	ldr	r3, [r3, #0]
    2a98:	689b      	ldr	r3, [r3, #8]
    2a9a:	9304      	str	r3, [sp, #16]
      mp = mp->m_next;
    2a9c:	9b05      	ldr	r3, [sp, #20]
    2a9e:	68db      	ldr	r3, [r3, #12]
    2aa0:	9305      	str	r3, [sp, #20]

    /* Recalculates the optimal thread priority by scanning the owned
       mutexes list.*/
    tprio_t newprio = ctp->p_realprio;
    mp = ctp->p_mtxlist;
    while (mp != NULL) {
    2aa2:	9b05      	ldr	r3, [sp, #20]
    2aa4:	2b00      	cmp	r3, #0
    2aa6:	d1ea      	bne.n	2a7e <chMtxUnlock+0x3e>
        newprio = mp->m_queue.p_next->p_prio;
      mp = mp->m_next;
    }
    /* Assigns to the current thread the highest priority among all the
       waiting threads.*/
    ctp->p_prio = newprio;
    2aa8:	9b03      	ldr	r3, [sp, #12]
    2aaa:	9a04      	ldr	r2, [sp, #16]
    2aac:	609a      	str	r2, [r3, #8]
    /* Awakens the highest priority thread waiting for the unlocked mutex and
       assigns the mutex to it.*/
    tp = fifo_remove(&ump->m_queue);
    2aae:	9b02      	ldr	r3, [sp, #8]
    2ab0:	4618      	mov	r0, r3
    2ab2:	f7ff fedd 	bl	2870 <fifo_remove>
    2ab6:	9001      	str	r0, [sp, #4]
    ump->m_owner = tp;
    2ab8:	9b02      	ldr	r3, [sp, #8]
    2aba:	9a01      	ldr	r2, [sp, #4]
    2abc:	609a      	str	r2, [r3, #8]
    ump->m_next = tp->p_mtxlist;
    2abe:	9b01      	ldr	r3, [sp, #4]
    2ac0:	6bda      	ldr	r2, [r3, #60]	; 0x3c
    2ac2:	9b02      	ldr	r3, [sp, #8]
    2ac4:	60da      	str	r2, [r3, #12]
    tp->p_mtxlist = ump;
    2ac6:	9b01      	ldr	r3, [sp, #4]
    2ac8:	9a02      	ldr	r2, [sp, #8]
    2aca:	63da      	str	r2, [r3, #60]	; 0x3c
    chSchWakeupS(tp, RDY_OK);
    2acc:	9801      	ldr	r0, [sp, #4]
    2ace:	f04f 0100 	mov.w	r1, #0
    2ad2:	f7fe feb5 	bl	1840 <chSchWakeupS>
    2ad6:	e003      	b.n	2ae0 <chMtxUnlock+0xa0>
  }
  else
    ump->m_owner = NULL;
    2ad8:	9b02      	ldr	r3, [sp, #8]
    2ada:	f04f 0200 	mov.w	r2, #0
    2ade:	609a      	str	r2, [r3, #8]
  chSysUnlock();
    2ae0:	f04f 0300 	mov.w	r3, #0
    2ae4:	f383 8811 	msr	BASEPRI, r3
  return ump;
    2ae8:	9b02      	ldr	r3, [sp, #8]
}
    2aea:	4618      	mov	r0, r3
    2aec:	b007      	add	sp, #28
    2aee:	bd00      	pop	{pc}

00002af0 <chMtxUnlockS>:
 *
 * @return              A pointer to the unlocked mutex.
 *
 * @sclass
 */
Mutex *chMtxUnlockS(void) {
    2af0:	b500      	push	{lr}
    2af2:	b087      	sub	sp, #28
  Thread *ctp = currp;
    2af4:	f240 7308 	movw	r3, #1800	; 0x708
    2af8:	f2c2 0300 	movt	r3, #8192	; 0x2000
    2afc:	699b      	ldr	r3, [r3, #24]
    2afe:	9303      	str	r3, [sp, #12]
              "chMtxUnlockS(), #2",
              "ownership failure");

  /* Removes the top Mutex from the owned mutexes list and marks it as not
     owned.*/
  ump = ctp->p_mtxlist;
    2b00:	9b03      	ldr	r3, [sp, #12]
    2b02:	6bdb      	ldr	r3, [r3, #60]	; 0x3c
    2b04:	9302      	str	r3, [sp, #8]
  ctp->p_mtxlist = ump->m_next;
    2b06:	9b02      	ldr	r3, [sp, #8]
    2b08:	68da      	ldr	r2, [r3, #12]
    2b0a:	9b03      	ldr	r3, [sp, #12]
    2b0c:	63da      	str	r2, [r3, #60]	; 0x3c
  /* If a thread is waiting on the mutex then the fun part begins.*/
  if (chMtxQueueNotEmptyS(ump)) {
    2b0e:	9b02      	ldr	r3, [sp, #8]
    2b10:	681a      	ldr	r2, [r3, #0]
    2b12:	9b02      	ldr	r3, [sp, #8]
    2b14:	429a      	cmp	r2, r3
    2b16:	d031      	beq.n	2b7c <chMtxUnlockS+0x8c>
    Thread *tp;

    /* Recalculates the optimal thread priority by scanning the owned
       mutexes list.*/
    tprio_t newprio = ctp->p_realprio;
    2b18:	9b03      	ldr	r3, [sp, #12]
    2b1a:	6c1b      	ldr	r3, [r3, #64]	; 0x40
    2b1c:	9304      	str	r3, [sp, #16]
    mp = ctp->p_mtxlist;
    2b1e:	9b03      	ldr	r3, [sp, #12]
    2b20:	6bdb      	ldr	r3, [r3, #60]	; 0x3c
    2b22:	9305      	str	r3, [sp, #20]
    while (mp != NULL) {
    2b24:	e011      	b.n	2b4a <chMtxUnlockS+0x5a>
      /* If the highest priority thread waiting in the mutexes list has a
         greater priority than the current thread base priority then the final
         priority will have at least that priority.*/
      if (chMtxQueueNotEmptyS(mp) && (mp->m_queue.p_next->p_prio > newprio))
    2b26:	9b05      	ldr	r3, [sp, #20]
    2b28:	681a      	ldr	r2, [r3, #0]
    2b2a:	9b05      	ldr	r3, [sp, #20]
    2b2c:	429a      	cmp	r2, r3
    2b2e:	d009      	beq.n	2b44 <chMtxUnlockS+0x54>
    2b30:	9b05      	ldr	r3, [sp, #20]
    2b32:	681b      	ldr	r3, [r3, #0]
    2b34:	689a      	ldr	r2, [r3, #8]
    2b36:	9b04      	ldr	r3, [sp, #16]
    2b38:	429a      	cmp	r2, r3
    2b3a:	d903      	bls.n	2b44 <chMtxUnlockS+0x54>
        newprio = mp->m_queue.p_next->p_prio;
    2b3c:	9b05      	ldr	r3, [sp, #20]
    2b3e:	681b      	ldr	r3, [r3, #0]
    2b40:	689b      	ldr	r3, [r3, #8]
    2b42:	9304      	str	r3, [sp, #16]
      mp = mp->m_next;
    2b44:	9b05      	ldr	r3, [sp, #20]
    2b46:	68db      	ldr	r3, [r3, #12]
    2b48:	9305      	str	r3, [sp, #20]

    /* Recalculates the optimal thread priority by scanning the owned
       mutexes list.*/
    tprio_t newprio = ctp->p_realprio;
    mp = ctp->p_mtxlist;
    while (mp != NULL) {
    2b4a:	9b05      	ldr	r3, [sp, #20]
    2b4c:	2b00      	cmp	r3, #0
    2b4e:	d1ea      	bne.n	2b26 <chMtxUnlockS+0x36>
         priority will have at least that priority.*/
      if (chMtxQueueNotEmptyS(mp) && (mp->m_queue.p_next->p_prio > newprio))
        newprio = mp->m_queue.p_next->p_prio;
      mp = mp->m_next;
    }
    ctp->p_prio = newprio;
    2b50:	9b03      	ldr	r3, [sp, #12]
    2b52:	9a04      	ldr	r2, [sp, #16]
    2b54:	609a      	str	r2, [r3, #8]
    /* Awakens the highest priority thread waiting for the unlocked mutex and
       assigns the mutex to it.*/
    tp = fifo_remove(&ump->m_queue);
    2b56:	9b02      	ldr	r3, [sp, #8]
    2b58:	4618      	mov	r0, r3
    2b5a:	f7ff fe89 	bl	2870 <fifo_remove>
    2b5e:	9001      	str	r0, [sp, #4]
    ump->m_owner = tp;
    2b60:	9b02      	ldr	r3, [sp, #8]
    2b62:	9a01      	ldr	r2, [sp, #4]
    2b64:	609a      	str	r2, [r3, #8]
    ump->m_next = tp->p_mtxlist;
    2b66:	9b01      	ldr	r3, [sp, #4]
    2b68:	6bda      	ldr	r2, [r3, #60]	; 0x3c
    2b6a:	9b02      	ldr	r3, [sp, #8]
    2b6c:	60da      	str	r2, [r3, #12]
    tp->p_mtxlist = ump;
    2b6e:	9b01      	ldr	r3, [sp, #4]
    2b70:	9a02      	ldr	r2, [sp, #8]
    2b72:	63da      	str	r2, [r3, #60]	; 0x3c
    chSchReadyI(tp);
    2b74:	9801      	ldr	r0, [sp, #4]
    2b76:	f7fe fd7b 	bl	1670 <chSchReadyI>
    2b7a:	e003      	b.n	2b84 <chMtxUnlockS+0x94>
  }
  else
    ump->m_owner = NULL;
    2b7c:	9b02      	ldr	r3, [sp, #8]
    2b7e:	f04f 0200 	mov.w	r2, #0
    2b82:	609a      	str	r2, [r3, #8]
  return ump;
    2b84:	9b02      	ldr	r3, [sp, #8]
}
    2b86:	4618      	mov	r0, r3
    2b88:	b007      	add	sp, #28
    2b8a:	bd00      	pop	{pc}
    2b8c:	f3af 8000 	nop.w

00002b90 <chMtxUnlockAll>:
 *          this function does not have any overhead related to the priority
 *          inheritance mechanism.
 *
 * @api
 */
void chMtxUnlockAll(void) {
    2b90:	b500      	push	{lr}
    2b92:	b085      	sub	sp, #20
  Thread *ctp = currp;
    2b94:	f240 7308 	movw	r3, #1800	; 0x708
    2b98:	f2c2 0300 	movt	r3, #8192	; 0x2000
    2b9c:	699b      	ldr	r3, [r3, #24]
    2b9e:	9303      	str	r3, [sp, #12]

  chSysLock();
    2ba0:	f04f 0320 	mov.w	r3, #32
    2ba4:	f383 8811 	msr	BASEPRI, r3
  if (ctp->p_mtxlist != NULL) {
    2ba8:	9b03      	ldr	r3, [sp, #12]
    2baa:	6bdb      	ldr	r3, [r3, #60]	; 0x3c
    2bac:	2b00      	cmp	r3, #0
    2bae:	d02c      	beq.n	2c0a <chMtxUnlockAll+0x7a>
    do {
      Mutex *ump = ctp->p_mtxlist;
    2bb0:	9b03      	ldr	r3, [sp, #12]
    2bb2:	6bdb      	ldr	r3, [r3, #60]	; 0x3c
    2bb4:	9302      	str	r3, [sp, #8]
      ctp->p_mtxlist = ump->m_next;
    2bb6:	9b02      	ldr	r3, [sp, #8]
    2bb8:	68da      	ldr	r2, [r3, #12]
    2bba:	9b03      	ldr	r3, [sp, #12]
    2bbc:	63da      	str	r2, [r3, #60]	; 0x3c
      if (chMtxQueueNotEmptyS(ump)) {
    2bbe:	9b02      	ldr	r3, [sp, #8]
    2bc0:	681a      	ldr	r2, [r3, #0]
    2bc2:	9b02      	ldr	r3, [sp, #8]
    2bc4:	429a      	cmp	r2, r3
    2bc6:	d012      	beq.n	2bee <chMtxUnlockAll+0x5e>
        Thread *tp = fifo_remove(&ump->m_queue);
    2bc8:	9b02      	ldr	r3, [sp, #8]
    2bca:	4618      	mov	r0, r3
    2bcc:	f7ff fe50 	bl	2870 <fifo_remove>
    2bd0:	9001      	str	r0, [sp, #4]
        ump->m_owner = tp;
    2bd2:	9b02      	ldr	r3, [sp, #8]
    2bd4:	9a01      	ldr	r2, [sp, #4]
    2bd6:	609a      	str	r2, [r3, #8]
        ump->m_next = tp->p_mtxlist;
    2bd8:	9b01      	ldr	r3, [sp, #4]
    2bda:	6bda      	ldr	r2, [r3, #60]	; 0x3c
    2bdc:	9b02      	ldr	r3, [sp, #8]
    2bde:	60da      	str	r2, [r3, #12]
        tp->p_mtxlist = ump;
    2be0:	9b01      	ldr	r3, [sp, #4]
    2be2:	9a02      	ldr	r2, [sp, #8]
    2be4:	63da      	str	r2, [r3, #60]	; 0x3c
        chSchReadyI(tp);
    2be6:	9801      	ldr	r0, [sp, #4]
    2be8:	f7fe fd42 	bl	1670 <chSchReadyI>
    2bec:	e003      	b.n	2bf6 <chMtxUnlockAll+0x66>
      }
      else
        ump->m_owner = NULL;
    2bee:	9b02      	ldr	r3, [sp, #8]
    2bf0:	f04f 0200 	mov.w	r2, #0
    2bf4:	609a      	str	r2, [r3, #8]
    } while (ctp->p_mtxlist != NULL);
    2bf6:	9b03      	ldr	r3, [sp, #12]
    2bf8:	6bdb      	ldr	r3, [r3, #60]	; 0x3c
    2bfa:	2b00      	cmp	r3, #0
    2bfc:	d1d8      	bne.n	2bb0 <chMtxUnlockAll+0x20>
    ctp->p_prio = ctp->p_realprio;
    2bfe:	9b03      	ldr	r3, [sp, #12]
    2c00:	6c1a      	ldr	r2, [r3, #64]	; 0x40
    2c02:	9b03      	ldr	r3, [sp, #12]
    2c04:	609a      	str	r2, [r3, #8]
    chSchRescheduleS();
    2c06:	f7fe fe4b 	bl	18a0 <chSchRescheduleS>
  }
  chSysUnlock();
    2c0a:	f04f 0300 	mov.w	r3, #0
    2c0e:	f383 8811 	msr	BASEPRI, r3
}
    2c12:	b005      	add	sp, #20
    2c14:	bd00      	pop	{pc}
    2c16:	bf00      	nop
    2c18:	f3af 8000 	nop.w
    2c1c:	f3af 8000 	nop.w

00002c20 <.LC0>:
    2c20:	702f2e2e 	eorvc	r2, pc, lr, lsr #28
    2c24:	65736168 	ldrbvs	r6, [r3, #-360]!	; 0xfffffe98
    2c28:	6d655f32 	stclvs	15, cr5, [r5, #-200]!	; 0xffffff38
    2c2c:	64646562 	strbtvs	r6, [r4], #-1378	; 0xfffffa9e
    2c30:	635f6465 	cmpvs	pc, #1694498816	; 0x65000000
    2c34:	6970672f 	ldmdbvs	r0!, {r0, r1, r2, r3, r5, r8, r9, sl, sp, lr}^
    2c38:	00632e6f 	rsbeq	r2, r3, pc, ror #28

00002c3c <.LC0>:
    2c3c:	702f2e2e 	eorvc	r2, pc, lr, lsr #28
    2c40:	65736168 	ldrbvs	r6, [r3, #-360]!	; 0xfffffe98
    2c44:	6d655f32 	stclvs	15, cr5, [r5, #-200]!	; 0xffffff38
    2c48:	64646562 	strbtvs	r6, [r4], #-1378	; 0xfffffa9e
    2c4c:	635f6465 	cmpvs	pc, #1694498816	; 0x65000000
    2c50:	6f6c632f 	svcvs	0x006c632f
    2c54:	2e736b63 	vsubcs.f64	d22, d3, d19
    2c58:	00000063 	andeq	r0, r0, r3, rrx

00002c5c <jumpTable.7294>:
    2c5c:	00000000 	andeq	r0, r0, r0
    2c60:	00000a29 	andeq	r0, r0, r9, lsr #20
    2c64:	00000a3d 	andeq	r0, r0, sp, lsr sl
    2c68:	00000c09 	andeq	r0, r0, r9, lsl #24
    2c6c:	00000c1d 	andeq	r0, r0, sp, lsl ip
    2c70:	00000c31 	andeq	r0, r0, r1, lsr ip
    2c74:	00000000 	andeq	r0, r0, r0
    2c78:	00000c45 	andeq	r0, r0, r5, asr #24
    2c7c:	00000c59 	andeq	r0, r0, r9, asr ip
    2c80:	00000c6d 	andeq	r0, r0, sp, ror #24
    2c84:	00000c81 	andeq	r0, r0, r1, lsl #25
    2c88:	00000d61 	andeq	r0, r0, r1, ror #26
    2c8c:	00000000 	andeq	r0, r0, r0
    2c90:	00000d75 	andeq	r0, r0, r5, ror sp
    2c94:	00000d89 	andeq	r0, r0, r9, lsl #27
    2c98:	00000d9d 	muleq	r0, sp, sp
    2c9c:	00000db1 			; <UNDEFINED> instruction: 0x00000db1
    2ca0:	00000dc5 	andeq	r0, r0, r5, asr #27
    2ca4:	00000000 	andeq	r0, r0, r0
    2ca8:	00000dd9 	ldrdeq	r0, [r0], -r9
    2cac:	00000ded 	andeq	r0, r0, sp, ror #27
    2cb0:	00000e01 	andeq	r0, r0, r1, lsl #28
    2cb4:	00000e15 	andeq	r0, r0, r5, lsl lr
    2cb8:	00000e29 	andeq	r0, r0, r9, lsr #28
    2cbc:	00000000 	andeq	r0, r0, r0

00002cc0 <.LC0>:
    2cc0:	702f2e2e 	eorvc	r2, pc, lr, lsr #28
    2cc4:	65736168 	ldrbvs	r6, [r3, #-360]!	; 0xfffffe98
    2cc8:	6d655f32 	stclvs	15, cr5, [r5, #-200]!	; 0xffffff38
    2ccc:	64646562 	strbtvs	r6, [r4], #-1378	; 0xfffffa9e
    2cd0:	635f6465 	cmpvs	pc, #1694498816	; 0x65000000
    2cd4:	7461772f 	strbtvc	r7, [r1], #-1839	; 0xfffff8d1
    2cd8:	6f446863 	svcvs	0x00446863
    2cdc:	00632e67 	rsbeq	r2, r3, r7, ror #28

00002ce0 <.LC0>:
    2ce0:	656c6469 	strbvs	r6, [ip, #-1129]!	; 0xfffffb97
    2ce4:	00000000 	andeq	r0, r0, r0

00002ce8 <.LC1>:
    2ce8:	6e69616d 	powvsez	f6, f1, #5.0
    2cec:	00000000 	andeq	r0, r0, r0

Disassembly of section .ramvect:

20000000 <_vector_ram_start>:
	...
